Archive member included because of file (symbol)

C:/Program Files/Rowley Associates Limited/CrossWorks for ARM 2.3/lib/libm_v7em_t_le_eabi.a(libm_asm.o)
                              THUMB Flash Debug 160k/HAL.o (__aeabi_i2f)
C:/Program Files/Rowley Associates Limited/CrossWorks for ARM 2.3/lib/libm_v7em_t_le_eabi.a(libm2.o)
                              THUMB Flash Debug 160k/lmathlib.o (acos)
C:/Program Files/Rowley Associates Limited/CrossWorks for ARM 2.3/lib/libm_v7em_t_le_eabi.a(libm2_asm.o)
                              THUMB Flash Debug 160k/LuaLibSys.o (fabs)
C:/Program Files/Rowley Associates Limited/CrossWorks for ARM 2.3/lib/libc_v7em_t_le_eabi.a(libc_asm.o)
                              THUMB Flash Debug 160k/HAL.o (__aeabi_uldivmod)
C:/Program Files/Rowley Associates Limited/CrossWorks for ARM 2.3/lib/libc_v7em_t_le_eabi.a(libc2.o)
                              THUMB Flash Debug 160k/lcode.o (abs)
C:/Program Files/Rowley Associates Limited/CrossWorks for ARM 2.3/lib/libc_v7em_t_le_eabi.a(libc2_asm.o)
                              THUMB Flash Debug 160k/ldo.o (longjmp)
C:/Program Files/Rowley Associates Limited/CrossWorks for ARM 2.3/lib/libc_v7em_t_le_eabi.a(__vfprintf_double_long_long.o)
                              (__vfprintf_double_long_long)
C:/Program Files/Rowley Associates Limited/CrossWorks for ARM 2.3/lib/libc_v7em_t_le_eabi.a(__vfscanf_double_long_long.o)
                              (__vfscanf_double_long_long)
C:/Program Files/Rowley Associates Limited/CrossWorks for ARM 2.3/lib/libdebugio_v7em_t_le_eabi.a(libdebugio.o)
                              (__do_debug_operation_mempoll)
C:/Program Files/Rowley Associates Limited/CrossWorks for ARM 2.3/lib/libdebugio_v7em_t_le_eabi.a(libdebugio_asm.o)
                              THUMB Flash Debug 160k/main.o (debug_printf)
C:/Program Files/Rowley Associates Limited/CrossWorks for ARM 2.3/lib/libc_targetio_impl_v7em_t_le_eabi.a(libc_targetio_impl.o)
                              THUMB Flash Debug 160k/main.o (printf)
C:/Program Files/Rowley Associates Limited/CrossWorks for ARM 2.3/lib/libc_user_libc_v7em_t_le_eabi.a(user_libc.o)
                              THUMB Flash Debug 160k/lauxlib.o (__errno)

Discarded input sections

 .text          0x00000000        0x0 THUMB Flash Debug 160k/main.o
 .data          0x00000000        0x0 THUMB Flash Debug 160k/main.o
 .bss           0x00000000        0x0 THUMB Flash Debug 160k/main.o
 .bss.L         0x00000000        0x4 THUMB Flash Debug 160k/main.o
 .text          0x00000000        0x0 THUMB Flash Debug 160k/HAL.o
 .data          0x00000000        0x0 THUMB Flash Debug 160k/HAL.o
 .bss           0x00000000        0x0 THUMB Flash Debug 160k/HAL.o
 .text.ResourceUnlockAll
                0x00000000       0x3c THUMB Flash Debug 160k/HAL.o
 .text.HAL_GetSecondsSinceBoot
                0x00000000       0x18 THUMB Flash Debug 160k/HAL.o
 .text.Test.5906
                0x00000000       0xa0 THUMB Flash Debug 160k/HAL.o
 .text.HAL_RAMTest
                0x00000000       0xfc THUMB Flash Debug 160k/HAL.o
 .text.HAL_SPIOpen
                0x00000000       0xcc THUMB Flash Debug 160k/HAL.o
 .text.HAL_SPIClose
                0x00000000       0x1c THUMB Flash Debug 160k/HAL.o
 .text.HAL_SPIConfig
                0x00000000       0x30 THUMB Flash Debug 160k/HAL.o
 .text.HAL_SPISendRecvByte
                0x00000000       0x50 THUMB Flash Debug 160k/HAL.o
 .text.HAL_SPISendRecv
                0x00000000       0x70 THUMB Flash Debug 160k/HAL.o
 .text.HAL_SPISend
                0x00000000       0x68 THUMB Flash Debug 160k/HAL.o
 .text.HAL_SPIRecv
                0x00000000       0x6c THUMB Flash Debug 160k/HAL.o
 .text          0x00000000        0x0 THUMB Flash Debug 160k/HALW5500.o
 .data          0x00000000        0x0 THUMB Flash Debug 160k/HALW5500.o
 .bss           0x00000000        0x0 THUMB Flash Debug 160k/HALW5500.o
 .text.Match.6214
                0x00000000       0x48 THUMB Flash Debug 160k/HALW5500.o
 .text.HALW5500_Config
                0x00000000       0xb4 THUMB Flash Debug 160k/HALW5500.o
 .text          0x00000000        0x0 THUMB Flash Debug 160k/HALLIS.o
 .data          0x00000000        0x0 THUMB Flash Debug 160k/HALLIS.o
 .bss           0x00000000        0x0 THUMB Flash Debug 160k/HALLIS.o
 .bss.accel     0x00000000       0x2c THUMB Flash Debug 160k/HALLIS.o
 .text.Write8Read8
                0x00000000       0x24 THUMB Flash Debug 160k/HALLIS.o
 .text.Write16Read8
                0x00000000       0x28 THUMB Flash Debug 160k/HALLIS.o
 .text.Write8   0x00000000       0x28 THUMB Flash Debug 160k/HALLIS.o
 .text.Read8    0x00000000       0x24 THUMB Flash Debug 160k/HALLIS.o
 .text.DivAbs16.5645
                0x00000000       0x44 THUMB Flash Debug 160k/HALLIS.o
 .text.HALLIS_Server1MS
                0x00000000      0x3a8 THUMB Flash Debug 160k/HALLIS.o
 .text.HALLIS_GetXYZ
                0x00000000       0x50 THUMB Flash Debug 160k/HALLIS.o
 .text.HALLIS_GetNoise
                0x00000000       0x30 THUMB Flash Debug 160k/HALLIS.o
 .rodata        0x00000000       0x60 THUMB Flash Debug 160k/HALLIS.o
 .text.HALLIS_Open
                0x00000000      0x164 THUMB Flash Debug 160k/HALLIS.o
 .text.HALLIS_Close
                0x00000000       0x18 THUMB Flash Debug 160k/HALLIS.o
 .bss.subSample.5650
                0x00000000        0x1 THUMB Flash Debug 160k/HALLIS.o
 .text          0x00000000        0x0 THUMB Flash Debug 160k/HALHSMCI.o
 .data          0x00000000        0x0 THUMB Flash Debug 160k/HALHSMCI.o
 .bss           0x00000000        0x0 THUMB Flash Debug 160k/HALHSMCI.o
 .text.ReadBlock
                0x00000000       0xd8 THUMB Flash Debug 160k/HALHSMCI.o
 .text.WriteBlock
                0x00000000       0xec THUMB Flash Debug 160k/HALHSMCI.o
 .text.HALHSMCI_Deinit
                0x00000000       0x2c THUMB Flash Debug 160k/HALHSMCI.o
 .text.HALHSMCI_GetSizeInfo
                0x00000000       0x3c THUMB Flash Debug 160k/HALHSMCI.o
 .text          0x00000000        0x0 THUMB Flash Debug 160k/w5500.o
 .data          0x00000000        0x0 THUMB Flash Debug 160k/w5500.o
 .bss           0x00000000        0x0 THUMB Flash Debug 160k/w5500.o
 .text          0x00000000        0x0 THUMB Flash Debug 160k/socket.o
 .data          0x00000000        0x0 THUMB Flash Debug 160k/socket.o
 .bss           0x00000000        0x0 THUMB Flash Debug 160k/socket.o
 .text.ctlsocket
                0x00000000      0x1fc THUMB Flash Debug 160k/socket.o
 .text.setsockopt
                0x00000000      0x270 THUMB Flash Debug 160k/socket.o
 .text.getsockopt
                0x00000000      0x278 THUMB Flash Debug 160k/socket.o
 .text          0x00000000        0x0 THUMB Flash Debug 160k/wizchip_conf.o
 .data          0x00000000        0x0 THUMB Flash Debug 160k/wizchip_conf.o
 .bss           0x00000000        0x0 THUMB Flash Debug 160k/wizchip_conf.o
 .text.reg_wizchip_cris_cbfunc
                0x00000000       0x60 THUMB Flash Debug 160k/wizchip_conf.o
 .text.reg_wizchip_bus_cbfunc
                0x00000000       0x74 THUMB Flash Debug 160k/wizchip_conf.o
 .text.wizphy_getphystat
                0x00000000       0x44 THUMB Flash Debug 160k/wizchip_conf.o
 .text          0x00000000        0x0 THUMB Flash Debug 160k/dhcp.o
 .data          0x00000000        0x0 THUMB Flash Debug 160k/dhcp.o
 .bss           0x00000000        0x0 THUMB Flash Debug 160k/dhcp.o
 .bss.DHCP_SOCKET
                0x00000000        0x1 THUMB Flash Debug 160k/dhcp.o
 .bss.DHCP_SIP  0x00000000        0x4 THUMB Flash Debug 160k/dhcp.o
 .bss.OLD_allocated_ip
                0x00000000        0x4 THUMB Flash Debug 160k/dhcp.o
 .bss.DHCP_allocated_ip
                0x00000000        0x4 THUMB Flash Debug 160k/dhcp.o
 .bss.DHCP_allocated_gw
                0x00000000        0x4 THUMB Flash Debug 160k/dhcp.o
 .bss.DHCP_allocated_sn
                0x00000000        0x4 THUMB Flash Debug 160k/dhcp.o
 .bss.DHCP_allocated_dns
                0x00000000        0x4 THUMB Flash Debug 160k/dhcp.o
 .bss.dhcp_state
                0x00000000        0x1 THUMB Flash Debug 160k/dhcp.o
 .bss.dhcp_retry_count
                0x00000000        0x1 THUMB Flash Debug 160k/dhcp.o
 .data.dhcp_lease_time
                0x00000000        0x4 THUMB Flash Debug 160k/dhcp.o
 .bss.dhcp_tick_1s
                0x00000000        0x4 THUMB Flash Debug 160k/dhcp.o
 .data.dhcp_tick_next
                0x00000000        0x4 THUMB Flash Debug 160k/dhcp.o
 .bss.DHCP_XID  0x00000000        0x4 THUMB Flash Debug 160k/dhcp.o
 .bss.pDHCPMSG  0x00000000        0x4 THUMB Flash Debug 160k/dhcp.o
 .data.HOST_NAME
                0x00000000        0x8 THUMB Flash Debug 160k/dhcp.o
 .bss.DHCP_CHADDR
                0x00000000        0x8 THUMB Flash Debug 160k/dhcp.o
 .data.dhcp_ip_assign
                0x00000000        0x4 THUMB Flash Debug 160k/dhcp.o
 .data.dhcp_ip_update
                0x00000000        0x4 THUMB Flash Debug 160k/dhcp.o
 .data.dhcp_ip_conflict
                0x00000000        0x4 THUMB Flash Debug 160k/dhcp.o
 .text.default_ip_assign
                0x00000000       0x44 THUMB Flash Debug 160k/dhcp.o
 .text.default_ip_update
                0x00000000       0x34 THUMB Flash Debug 160k/dhcp.o
 .text.default_ip_conflict
                0x00000000       0x30 THUMB Flash Debug 160k/dhcp.o
 .text.reg_dhcp_cbfunc
                0x00000000       0x84 THUMB Flash Debug 160k/dhcp.o
 .text.makeDHCPMSG
                0x00000000      0x358 THUMB Flash Debug 160k/dhcp.o
 .text.send_DHCP_DISCOVER
                0x00000000      0x440 THUMB Flash Debug 160k/dhcp.o
 .text.send_DHCP_REQUEST
                0x00000000      0x6f8 THUMB Flash Debug 160k/dhcp.o
 .text.send_DHCP_DECLINE
                0x00000000      0x400 THUMB Flash Debug 160k/dhcp.o
 .text.parseDHCPMSG
                0x00000000      0x438 THUMB Flash Debug 160k/dhcp.o
 .text.DHCP_run
                0x00000000      0x368 THUMB Flash Debug 160k/dhcp.o
 .text.DHCP_stop
                0x00000000       0x24 THUMB Flash Debug 160k/dhcp.o
 .text.check_DHCP_timeout
                0x00000000       0xf8 THUMB Flash Debug 160k/dhcp.o
 .rodata        0x00000000       0x14 THUMB Flash Debug 160k/dhcp.o
 .text.check_DHCP_leasedIP
                0x00000000       0x9c THUMB Flash Debug 160k/dhcp.o
 .text.DHCP_init
                0x00000000      0x170 THUMB Flash Debug 160k/dhcp.o
 .text.reset_DHCP_timeout
                0x00000000       0x34 THUMB Flash Debug 160k/dhcp.o
 .text.DHCP_time_handler
                0x00000000       0x24 THUMB Flash Debug 160k/dhcp.o
 .text.getIPfromDHCP
                0x00000000       0x58 THUMB Flash Debug 160k/dhcp.o
 .text.getGWfromDHCP
                0x00000000       0x58 THUMB Flash Debug 160k/dhcp.o
 .text.getSNfromDHCP
                0x00000000       0x58 THUMB Flash Debug 160k/dhcp.o
 .text.getDNSfromDHCP
                0x00000000       0x58 THUMB Flash Debug 160k/dhcp.o
 .text.getDHCPLeasetime
                0x00000000       0x18 THUMB Flash Debug 160k/dhcp.o
 .text          0x00000000        0x0 THUMB Flash Debug 160k/dns.o
 .data          0x00000000        0x0 THUMB Flash Debug 160k/dns.o
 .bss           0x00000000        0x0 THUMB Flash Debug 160k/dns.o
 .bss.pDNSMSG   0x00000000        0x4 THUMB Flash Debug 160k/dns.o
 .bss.DNS_SOCKET
                0x00000000        0x1 THUMB Flash Debug 160k/dns.o
 .bss.DNS_MSGID
                0x00000000        0x2 THUMB Flash Debug 160k/dns.o
 .bss.dns_1s_tick
                0x00000000        0x4 THUMB Flash Debug 160k/dns.o
 .text.get16    0x00000000       0x34 THUMB Flash Debug 160k/dns.o
 .text.put16    0x00000000       0x40 THUMB Flash Debug 160k/dns.o
 .text.parse_name
                0x00000000      0x14c THUMB Flash Debug 160k/dns.o
 .text.dns_question
                0x00000000       0x54 THUMB Flash Debug 160k/dns.o
 .text.dns_answer
                0x00000000      0x224 THUMB Flash Debug 160k/dns.o
 .text.parseDNSMSG
                0x00000000      0x1c8 THUMB Flash Debug 160k/dns.o
 .text.dns_makequery
                0x00000000      0x174 THUMB Flash Debug 160k/dns.o
 .text.check_DNS_timeout
                0x00000000       0x70 THUMB Flash Debug 160k/dns.o
 .text.DNS_init
                0x00000000       0x3c THUMB Flash Debug 160k/dns.o
 .text.DNS_run  0x00000000      0x150 THUMB Flash Debug 160k/dns.o
 .text.DNS_time_handler
                0x00000000       0x24 THUMB Flash Debug 160k/dns.o
 .bss.retry_count.4146
                0x00000000        0x1 THUMB Flash Debug 160k/dns.o
 .text          0x00000000        0x0 THUMB Flash Debug 160k/ZeroConf.o
 .data          0x00000000        0x0 THUMB Flash Debug 160k/ZeroConf.o
 .bss           0x00000000        0x0 THUMB Flash Debug 160k/ZeroConf.o
 .text          0x00000000        0x0 THUMB Flash Debug 160k/Memory.o
 .data          0x00000000        0x0 THUMB Flash Debug 160k/Memory.o
 .bss           0x00000000        0x0 THUMB Flash Debug 160k/Memory.o
 .text.Memory_NewString
                0x00000000       0x4c THUMB Flash Debug 160k/Memory.o
 .text.Memory_NewStringLimited
                0x00000000       0x6c THUMB Flash Debug 160k/Memory.o
 .text          0x00000000        0x0 THUMB Flash Debug 160k/TFTPBoot.o
 .data          0x00000000        0x0 THUMB Flash Debug 160k/TFTPBoot.o
 .bss           0x00000000        0x0 THUMB Flash Debug 160k/TFTPBoot.o
 .text          0x00000000        0x0 THUMB Flash Debug 160k/SysLog.o
 .data          0x00000000        0x0 THUMB Flash Debug 160k/SysLog.o
 .bss           0x00000000        0x0 THUMB Flash Debug 160k/SysLog.o
 .text          0x00000000        0x0 THUMB Flash Debug 160k/ATSHA204.o
 .data          0x00000000        0x0 THUMB Flash Debug 160k/ATSHA204.o
 .bss           0x00000000        0x0 THUMB Flash Debug 160k/ATSHA204.o
 .text.ATSHA204_Random
                0x00000000       0x14 THUMB Flash Debug 160k/ATSHA204.o
 .text.ATSHA204_ReadData
                0x00000000       0x3c THUMB Flash Debug 160k/ATSHA204.o
 .text          0x00000000        0x0 THUMB Flash Debug 160k/LuaLibPin.o
 .data          0x00000000        0x0 THUMB Flash Debug 160k/LuaLibPin.o
 .bss           0x00000000        0x0 THUMB Flash Debug 160k/LuaLibPin.o
 .text          0x00000000        0x0 THUMB Flash Debug 160k/LuaLibUtils.o
 .data          0x00000000        0x0 THUMB Flash Debug 160k/LuaLibUtils.o
 .bss           0x00000000        0x0 THUMB Flash Debug 160k/LuaLibUtils.o
 .text.LuaUtils_DumpStack
                0x00000000      0x190 THUMB Flash Debug 160k/LuaLibUtils.o
 .text.LuaUtils_ClassNew
                0x00000000       0xc4 THUMB Flash Debug 160k/LuaLibUtils.o
 .text.LuaUtils_ClassGet
                0x00000000       0x80 THUMB Flash Debug 160k/LuaLibUtils.o
 .text.LuaUtils_ClassDelete
                0x00000000       0x60 THUMB Flash Debug 160k/LuaLibUtils.o
 .text          0x00000000        0x0 THUMB Flash Debug 160k/LuaLibSerial.o
 .data          0x00000000        0x0 THUMB Flash Debug 160k/LuaLibSerial.o
 .bss           0x00000000        0x0 THUMB Flash Debug 160k/LuaLibSerial.o
 .text          0x00000000        0x0 THUMB Flash Debug 160k/LuaLibSys.o
 .data          0x00000000        0x0 THUMB Flash Debug 160k/LuaLibSys.o
 .bss           0x00000000        0x0 THUMB Flash Debug 160k/LuaLibSys.o
 .text.CNServeTick
                0x00000000       0x14 THUMB Flash Debug 160k/LuaLibSys.o
 .text          0x00000000        0x0 THUMB Flash Debug 160k/LuaLibWS2812.o
 .data          0x00000000        0x0 THUMB Flash Debug 160k/LuaLibWS2812.o
 .bss           0x00000000        0x0 THUMB Flash Debug 160k/LuaLibWS2812.o
 .text          0x00000000        0x0 THUMB Flash Debug 160k/LuaLibW5500.o
 .data          0x00000000        0x0 THUMB Flash Debug 160k/LuaLibW5500.o
 .bss           0x00000000        0x0 THUMB Flash Debug 160k/LuaLibW5500.o
 .text.ChangeEndian32
                0x00000000       0x34 THUMB Flash Debug 160k/LuaLibW5500.o
 .text          0x00000000        0x0 THUMB Flash Debug 160k/LuaLibSPI.o
 .data          0x00000000        0x0 THUMB Flash Debug 160k/LuaLibSPI.o
 .bss           0x00000000        0x0 THUMB Flash Debug 160k/LuaLibSPI.o
 .rodata.LuaOpenUsage
                0x00000000       0x10 THUMB Flash Debug 160k/LuaLibSPI.o
 .rodata        0x00000000       0x3c THUMB Flash Debug 160k/LuaLibSPI.o
 .text.LuaOpen  0x00000000       0xd8 THUMB Flash Debug 160k/LuaLibSPI.o
 .rodata.LuaCloseUsage
                0x00000000        0x4 THUMB Flash Debug 160k/LuaLibSPI.o
 .text.LuaClose
                0x00000000       0x44 THUMB Flash Debug 160k/LuaLibSPI.o
 .rodata.LuaSendUsage
                0x00000000       0x10 THUMB Flash Debug 160k/LuaLibSPI.o
 .text.LuaSend  0x00000000       0x8c THUMB Flash Debug 160k/LuaLibSPI.o
 .rodata.LuaRecvUsage
                0x00000000        0xc THUMB Flash Debug 160k/LuaLibSPI.o
 .text.LuaRecv  0x00000000      0x154 THUMB Flash Debug 160k/LuaLibSPI.o
 .rodata.Lib    0x00000000       0x60 THUMB Flash Debug 160k/LuaLibSPI.o
 .text.LuaLibSPI_Register
                0x00000000       0x30 THUMB Flash Debug 160k/LuaLibSPI.o
 .text          0x00000000        0x0 THUMB Flash Debug 160k/LuaLibLIS.o
 .data          0x00000000        0x0 THUMB Flash Debug 160k/LuaLibLIS.o
 .bss           0x00000000        0x0 THUMB Flash Debug 160k/LuaLibLIS.o
 .rodata.LuaOpenUsage
                0x00000000        0x8 THUMB Flash Debug 160k/LuaLibLIS.o
 .text.LuaOpen  0x00000000       0x5c THUMB Flash Debug 160k/LuaLibLIS.o
 .rodata.LuaCloseUsage
                0x00000000        0x4 THUMB Flash Debug 160k/LuaLibLIS.o
 .text.LuaClose
                0x00000000       0x2c THUMB Flash Debug 160k/LuaLibLIS.o
 .rodata.LuaGetXYZUsage
                0x00000000        0x8 THUMB Flash Debug 160k/LuaLibLIS.o
 .text.LuaGetXYZ
                0x00000000       0x80 THUMB Flash Debug 160k/LuaLibLIS.o
 .rodata.LuaGetNoiseUsage
                0x00000000        0xc THUMB Flash Debug 160k/LuaLibLIS.o
 .text.LuaGetNoise
                0x00000000       0x50 THUMB Flash Debug 160k/LuaLibLIS.o
 .rodata        0x00000000       0x2c THUMB Flash Debug 160k/LuaLibLIS.o
 .rodata.Lib    0x00000000       0x60 THUMB Flash Debug 160k/LuaLibLIS.o
 .text.LuaLibLIS_Register
                0x00000000       0x30 THUMB Flash Debug 160k/LuaLibLIS.o
 .text          0x00000000        0x0 THUMB Flash Debug 160k/LuaLibBASE64.o
 .data          0x00000000        0x0 THUMB Flash Debug 160k/LuaLibBASE64.o
 .bss           0x00000000        0x0 THUMB Flash Debug 160k/LuaLibBASE64.o
 .bss.temp      0x00000000        0x4 THUMB Flash Debug 160k/LuaLibBASE64.o
 .text          0x00000000        0x0 THUMB Flash Debug 160k/LuaLibI2C.o
 .data          0x00000000        0x0 THUMB Flash Debug 160k/LuaLibI2C.o
 .bss           0x00000000        0x0 THUMB Flash Debug 160k/LuaLibI2C.o
 .text          0x00000000        0x0 THUMB Flash Debug 160k/LuaLibEVE.o
 .data          0x00000000        0x0 THUMB Flash Debug 160k/LuaLibEVE.o
 .bss           0x00000000        0x0 THUMB Flash Debug 160k/LuaLibEVE.o
 .text          0x00000000        0x0 THUMB Flash Debug 160k/LuaLibGYRDisplay.o
 .data          0x00000000        0x0 THUMB Flash Debug 160k/LuaLibGYRDisplay.o
 .bss           0x00000000        0x0 THUMB Flash Debug 160k/LuaLibGYRDisplay.o
 .rodata.LuaLEDUsage
                0x00000000       0x10 THUMB Flash Debug 160k/LuaLibGYRDisplay.o
 .text.LuaLED   0x00000000       0x58 THUMB Flash Debug 160k/LuaLibGYRDisplay.o
 .rodata        0x00000000       0x14 THUMB Flash Debug 160k/LuaLibGYRDisplay.o
 .rodata.Lib    0x00000000       0x30 THUMB Flash Debug 160k/LuaLibGYRDisplay.o
 .text.LuaLibGYRDisplay_Register
                0x00000000       0x30 THUMB Flash Debug 160k/LuaLibGYRDisplay.o
 .text          0x00000000        0x0 THUMB Flash Debug 160k/LuaLibJSON.o
 .data          0x00000000        0x0 THUMB Flash Debug 160k/LuaLibJSON.o
 .bss           0x00000000        0x0 THUMB Flash Debug 160k/LuaLibJSON.o
 .text          0x00000000        0x0 THUMB Flash Debug 160k/LuaLibSoftPWM.o
 .data          0x00000000        0x0 THUMB Flash Debug 160k/LuaLibSoftPWM.o
 .bss           0x00000000        0x0 THUMB Flash Debug 160k/LuaLibSoftPWM.o
 .text          0x00000000        0x0 THUMB Flash Debug 160k/LuaLibADC.o
 .data          0x00000000        0x0 THUMB Flash Debug 160k/LuaLibADC.o
 .bss           0x00000000        0x0 THUMB Flash Debug 160k/LuaLibADC.o
 .text          0x00000000        0x0 THUMB Flash Debug 160k/LuaLibSoftCounter.o
 .data          0x00000000        0x0 THUMB Flash Debug 160k/LuaLibSoftCounter.o
 .bss           0x00000000        0x0 THUMB Flash Debug 160k/LuaLibSoftCounter.o
 .text          0x00000000        0x0 THUMB Flash Debug 160k/cn.o
 .data          0x00000000        0x0 THUMB Flash Debug 160k/cn.o
 .bss           0x00000000        0x0 THUMB Flash Debug 160k/cn.o
 .text.LuaLibLevelSys_Register
                0x00000000       0x14 THUMB Flash Debug 160k/cn.o
 .text.CN_ServeTick
                0x00000000       0x14 THUMB Flash Debug 160k/cn.o
 .text          0x00000000        0x0 THUMB Flash Debug 160k/Modifyer.o
 .data          0x00000000        0x0 THUMB Flash Debug 160k/Modifyer.o
 .bss           0x00000000        0x0 THUMB Flash Debug 160k/Modifyer.o
 .text          0x00000000        0x0 THUMB Flash Debug 160k/sha204_comm.o
 .data          0x00000000        0x0 THUMB Flash Debug 160k/sha204_comm.o
 .bss           0x00000000        0x0 THUMB Flash Debug 160k/sha204_comm.o
 .text          0x00000000        0x0 THUMB Flash Debug 160k/sha204_comm_marshaling.o
 .data          0x00000000        0x0 THUMB Flash Debug 160k/sha204_comm_marshaling.o
 .bss           0x00000000        0x0 THUMB Flash Debug 160k/sha204_comm_marshaling.o
 .text.sha204m_check_parameters
                0x00000000       0x20 THUMB Flash Debug 160k/sha204_comm_marshaling.o
 .text.sha204m_execute
                0x00000000      0x350 THUMB Flash Debug 160k/sha204_comm_marshaling.o
 .text.sha204m_check_mac
                0x00000000       0xec THUMB Flash Debug 160k/sha204_comm_marshaling.o
 .text.sha204m_derive_key
                0x00000000       0xa8 THUMB Flash Debug 160k/sha204_comm_marshaling.o
 .text.sha204m_dev_rev
                0x00000000       0x74 THUMB Flash Debug 160k/sha204_comm_marshaling.o
 .text.sha204m_gen_dig
                0x00000000       0xbc THUMB Flash Debug 160k/sha204_comm_marshaling.o
 .text.sha204m_hmac
                0x00000000       0x88 THUMB Flash Debug 160k/sha204_comm_marshaling.o
 .text.sha204m_mac
                0x00000000       0xbc THUMB Flash Debug 160k/sha204_comm_marshaling.o
 .text.sha204m_nonce
                0x00000000       0xcc THUMB Flash Debug 160k/sha204_comm_marshaling.o
 .text.sha204m_pause
                0x00000000       0x78 THUMB Flash Debug 160k/sha204_comm_marshaling.o
 .text.sha204m_random
                0x00000000       0x80 THUMB Flash Debug 160k/sha204_comm_marshaling.o
 .text.sha204m_update_extra
                0x00000000       0x7c THUMB Flash Debug 160k/sha204_comm_marshaling.o
 .text.sha204m_write
                0x00000000      0x140 THUMB Flash Debug 160k/sha204_comm_marshaling.o
 .text          0x00000000        0x0 THUMB Flash Debug 160k/sha204_example_main.o
 .data          0x00000000        0x0 THUMB Flash Debug 160k/sha204_example_main.o
 .bss           0x00000000        0x0 THUMB Flash Debug 160k/sha204_example_main.o
 .text.SHA204main
                0x00000000       0x2c THUMB Flash Debug 160k/sha204_example_main.o
 .text          0x00000000        0x0 THUMB Flash Debug 160k/sha204_examples.o
 .data          0x00000000        0x0 THUMB Flash Debug 160k/sha204_examples.o
 .bss           0x00000000        0x0 THUMB Flash Debug 160k/sha204_examples.o
 .rodata.sha204_default_key
                0x00000000      0x200 THUMB Flash Debug 160k/sha204_examples.o
 .text.sha204e_sleep
                0x00000000        0xc THUMB Flash Debug 160k/sha204_examples.o
 .text.sha204e_wakeup_device
                0x00000000       0x4c THUMB Flash Debug 160k/sha204_examples.o
 .text.sha204e_check_response_status
                0x00000000       0x38 THUMB Flash Debug 160k/sha204_examples.o
 .text.sha204e_read_serial_number
                0x00000000       0x6c THUMB Flash Debug 160k/sha204_examples.o
 .text.sha204e_lock_config_zone
                0x00000000       0xa0 THUMB Flash Debug 160k/sha204_examples.o
 .text.sha204e_configure_key
                0x00000000      0x11c THUMB Flash Debug 160k/sha204_examples.o
 .text.sha204e_configure_derive_key
                0x00000000       0x2c THUMB Flash Debug 160k/sha204_examples.o
 .text.sha204e_configure_diversify_key
                0x00000000      0x110 THUMB Flash Debug 160k/sha204_examples.o
 .rodata        0x00000000       0x58 THUMB Flash Debug 160k/sha204_examples.o
 .text.sha204e_checkmac_device
                0x00000000      0x210 THUMB Flash Debug 160k/sha204_examples.o
 .text.sha204e_checkmac_firmware
                0x00000000      0x3cc THUMB Flash Debug 160k/sha204_examples.o
 .text.sha204e_checkmac_derived_key
                0x00000000      0x2a0 THUMB Flash Debug 160k/sha204_examples.o
 .text.sha204e_checkmac_diversified_key
                0x00000000      0x218 THUMB Flash Debug 160k/sha204_examples.o
 .text.sha204e_change_i2c_address
                0x00000000      0x148 THUMB Flash Debug 160k/sha204_examples.o
 .bss.response_random.3956
                0x00000000       0x24 THUMB Flash Debug 160k/sha204_examples.o
 .bss.wakeup_response.3941
                0x00000000        0x4 THUMB Flash Debug 160k/sha204_examples.o
 .bss.rx_buffer.3943
                0x00000000       0x24 THUMB Flash Debug 160k/sha204_examples.o
 .bss.tx_buffer.3942
                0x00000000       0x54 THUMB Flash Debug 160k/sha204_examples.o
 .bss.mac.3944  0x00000000       0x20 THUMB Flash Debug 160k/sha204_examples.o
 .bss.response_mac.3920
                0x00000000       0x24 THUMB Flash Debug 160k/sha204_examples.o
 .bss.command.3919
                0x00000000       0x54 THUMB Flash Debug 160k/sha204_examples.o
 .rodata.mac_mode0_response_expected.3923
                0x00000000       0x24 THUMB Flash Debug 160k/sha204_examples.o
 .bss.response_checkmac.3922
                0x00000000        0x4 THUMB Flash Debug 160k/sha204_examples.o
 .bss.other_data.3921
                0x00000000       0x10 THUMB Flash Debug 160k/sha204_examples.o
 .text          0x00000000        0x0 THUMB Flash Debug 160k/sha204_helper.o
 .data          0x00000000        0x0 THUMB Flash Debug 160k/sha204_helper.o
 .bss           0x00000000        0x0 THUMB Flash Debug 160k/sha204_helper.o
 .text.sha204h_get_library_version
                0x00000000       0x18 THUMB Flash Debug 160k/sha204_helper.o
 .text.sha204h_include_data
                0x00000000      0x160 THUMB Flash Debug 160k/sha204_helper.o
 .text.sha204h_nonce
                0x00000000      0x160 THUMB Flash Debug 160k/sha204_helper.o
 .text.sha204h_mac
                0x00000000      0x238 THUMB Flash Debug 160k/sha204_helper.o
 .text.sha204h_check_mac
                0x00000000      0x210 THUMB Flash Debug 160k/sha204_helper.o
 .text.sha204h_hmac
                0x00000000      0x324 THUMB Flash Debug 160k/sha204_helper.o
 .text.sha204h_gen_dig
                0x00000000      0x1c8 THUMB Flash Debug 160k/sha204_helper.o
 .text.sha204h_derive_key
                0x00000000      0x1a0 THUMB Flash Debug 160k/sha204_helper.o
 .text.sha204h_derive_key_mac
                0x00000000       0xec THUMB Flash Debug 160k/sha204_helper.o
 .text.sha204h_encrypt
                0x00000000      0x1d0 THUMB Flash Debug 160k/sha204_helper.o
 .text.sha204h_decrypt
                0x00000000       0xd4 THUMB Flash Debug 160k/sha204_helper.o
 .text.sha204h_calculate_crc_chain
                0x00000000       0xc0 THUMB Flash Debug 160k/sha204_helper.o
 .rodata        0x00000000      0x124 THUMB Flash Debug 160k/sha204_helper.o
 .text.sha204h_calculate_sha256
                0x00000000      0x504 THUMB Flash Debug 160k/sha204_helper.o
 .data.version.3857
                0x00000000        0x4 THUMB Flash Debug 160k/sha204_helper.o
 .text          0x00000000        0x0 THUMB Flash Debug 160k/sha204_swi.o
 .data          0x00000000        0x0 THUMB Flash Debug 160k/sha204_swi.o
 .bss           0x00000000        0x0 THUMB Flash Debug 160k/sha204_swi.o
 .text.sha204p_idle
                0x00000000       0x14 THUMB Flash Debug 160k/sha204_swi.o
 .text.sha204p_reset_io
                0x00000000       0x10 THUMB Flash Debug 160k/sha204_swi.o
 .text          0x00000000        0x0 THUMB Flash Debug 160k/timer_utilities.o
 .data          0x00000000        0x0 THUMB Flash Debug 160k/timer_utilities.o
 .bss           0x00000000        0x0 THUMB Flash Debug 160k/timer_utilities.o
 .text.delay_10us
                0x00000000       0x1c THUMB Flash Debug 160k/timer_utilities.o
 .text          0x00000000        0x0 THUMB Flash Debug 160k/uart_phys.o
 .data          0x00000000        0x0 THUMB Flash Debug 160k/uart_phys.o
 .bss           0x00000000        0x0 THUMB Flash Debug 160k/uart_phys.o
 .text          0x00000000        0x0 THUMB Flash Debug 160k/WS2812.o
 .data          0x00000000        0x0 THUMB Flash Debug 160k/WS2812.o
 .bss           0x00000000        0x0 THUMB Flash Debug 160k/WS2812.o
 .text          0x00000000        0x0 THUMB Flash Debug 160k/diskio.o
 .data          0x00000000        0x0 THUMB Flash Debug 160k/diskio.o
 .bss           0x00000000        0x0 THUMB Flash Debug 160k/diskio.o
 .text          0x00000000        0x0 THUMB Flash Debug 160k/ff.o
 .data          0x00000000        0x0 THUMB Flash Debug 160k/ff.o
 .bss           0x00000000        0x0 THUMB Flash Debug 160k/ff.o
 .text.get_fileinfo
                0x00000000      0x1e8 THUMB Flash Debug 160k/ff.o
 .text.f_chdir  0x00000000       0xc8 THUMB Flash Debug 160k/ff.o
 .text.f_getcwd
                0x00000000      0x284 THUMB Flash Debug 160k/ff.o
 .text.f_opendir
                0x00000000       0xf0 THUMB Flash Debug 160k/ff.o
 .text.f_closedir
                0x00000000       0x2c THUMB Flash Debug 160k/ff.o
 .text.f_readdir
                0x00000000       0xbc THUMB Flash Debug 160k/ff.o
 .text.f_stat   0x00000000       0xa0 THUMB Flash Debug 160k/ff.o
 .text.f_getfree
                0x00000000      0x1c4 THUMB Flash Debug 160k/ff.o
 .text.f_truncate
                0x00000000      0x114 THUMB Flash Debug 160k/ff.o
 .text.f_chmod  0x00000000      0x100 THUMB Flash Debug 160k/ff.o
 .text.f_utime  0x00000000      0x10c THUMB Flash Debug 160k/ff.o
 .text.f_getlabel
                0x00000000      0x168 THUMB Flash Debug 160k/ff.o
 .text.f_setlabel
                0x00000000      0x2e0 THUMB Flash Debug 160k/ff.o
 .text.f_mkfs   0x00000000      0xbb8 THUMB Flash Debug 160k/ff.o
 .text.f_putc   0x00000000       0x68 THUMB Flash Debug 160k/ff.o
 .text.f_puts   0x00000000       0x78 THUMB Flash Debug 160k/ff.o
 .rodata.vst.4323
                0x00000000       0x18 THUMB Flash Debug 160k/ff.o
 .rodata.cst.4324
                0x00000000       0x18 THUMB Flash Debug 160k/ff.o
 .text          0x00000000        0x0 THUMB Flash Debug 160k/unicode.o
 .data          0x00000000        0x0 THUMB Flash Debug 160k/unicode.o
 .bss           0x00000000        0x0 THUMB Flash Debug 160k/unicode.o
 .text          0x00000000        0x0 THUMB Flash Debug 160k/FatFsWrapper.o
 .data          0x00000000        0x0 THUMB Flash Debug 160k/FatFsWrapper.o
 .bss           0x00000000        0x0 THUMB Flash Debug 160k/FatFsWrapper.o
 .text          0x00000000        0x0 THUMB Flash Debug 160k/EVE.o
 .data          0x00000000        0x0 THUMB Flash Debug 160k/EVE.o
 .bss           0x00000000        0x0 THUMB Flash Debug 160k/EVE.o
 .rodata._LCD_QVGA
                0x00000000       0x18 THUMB Flash Debug 160k/EVE.o
 .text.MemoryRead32
                0x00000000       0x94 THUMB Flash Debug 160k/EVE.o
 .text.incCMDOffset
                0x00000000       0x30 THUMB Flash Debug 160k/EVE.o
 .text.EVE_WritePalette
                0x00000000       0x44 THUMB Flash Debug 160k/EVE.o
 .text.EVE_DisplayListTest
                0x00000000       0xe0 THUMB Flash Debug 160k/EVE.o
 .text          0x00000000        0x0 THUMB Flash Debug 160k/FFS.o
 .data          0x00000000        0x0 THUMB Flash Debug 160k/FFS.o
 .bss           0x00000000        0x0 THUMB Flash Debug 160k/FFS.o
 .text          0x00000000        0x0 THUMB Flash Debug 160k/lapi.o
 .data          0x00000000        0x0 THUMB Flash Debug 160k/lapi.o
 .bss           0x00000000        0x0 THUMB Flash Debug 160k/lapi.o
 .rodata.lua_ident
                0x00000000       0x84 THUMB Flash Debug 160k/lapi.o
 .text.lua_atpanic
                0x00000000       0x2c THUMB Flash Debug 160k/lapi.o
 .text.lua_isuserdata
                0x00000000       0x3c THUMB Flash Debug 160k/lapi.o
 .text.lua_arith
                0x00000000       0x70 THUMB Flash Debug 160k/lapi.o
 .text.lua_tocfunction
                0x00000000       0x44 THUMB Flash Debug 160k/lapi.o
 .text.lua_getallocf
                0x00000000       0x30 THUMB Flash Debug 160k/lapi.o
 .text.lua_setallocf
                0x00000000       0x28 THUMB Flash Debug 160k/lapi.o
 .text          0x00000000        0x0 THUMB Flash Debug 160k/lauxlib.o
 .data          0x00000000        0x0 THUMB Flash Debug 160k/lauxlib.o
 .bss           0x00000000        0x0 THUMB Flash Debug 160k/lauxlib.o
 .text.luaL_ref
                0x00000000       0xbc THUMB Flash Debug 160k/lauxlib.o
 .text.luaL_unref
                0x00000000       0x64 THUMB Flash Debug 160k/lauxlib.o
 .text.luaL_loadstring
                0x00000000       0x30 THUMB Flash Debug 160k/lauxlib.o
 .text.l_alloc  0x00000000       0x34 THUMB Flash Debug 160k/lauxlib.o
 .text.panic    0x00000000       0x50 THUMB Flash Debug 160k/lauxlib.o
 .text.luaL_newstate
                0x00000000       0x3c THUMB Flash Debug 160k/lauxlib.o
 .text          0x00000000        0x0 THUMB Flash Debug 160k/lbaselib.o
 .data          0x00000000        0x0 THUMB Flash Debug 160k/lbaselib.o
 .bss           0x00000000        0x0 THUMB Flash Debug 160k/lbaselib.o
 .text          0x00000000        0x0 THUMB Flash Debug 160k/lbitlib.o
 .data          0x00000000        0x0 THUMB Flash Debug 160k/lbitlib.o
 .bss           0x00000000        0x0 THUMB Flash Debug 160k/lbitlib.o
 .rodata        0x00000000       0x24 THUMB Flash Debug 160k/lbitlib.o
 .text.luaopen_bit32
                0x00000000       0x24 THUMB Flash Debug 160k/lbitlib.o
 .text          0x00000000        0x0 THUMB Flash Debug 160k/lcode.o
 .data          0x00000000        0x0 THUMB Flash Debug 160k/lcode.o
 .bss           0x00000000        0x0 THUMB Flash Debug 160k/lcode.o
 .text          0x00000000        0x0 THUMB Flash Debug 160k/lcorolib.o
 .data          0x00000000        0x0 THUMB Flash Debug 160k/lcorolib.o
 .bss           0x00000000        0x0 THUMB Flash Debug 160k/lcorolib.o
 .text          0x00000000        0x0 THUMB Flash Debug 160k/lctype.o
 .data          0x00000000        0x0 THUMB Flash Debug 160k/lctype.o
 .bss           0x00000000        0x0 THUMB Flash Debug 160k/lctype.o
 .text          0x00000000        0x0 THUMB Flash Debug 160k/ldblib.o
 .data          0x00000000        0x0 THUMB Flash Debug 160k/ldblib.o
 .bss           0x00000000        0x0 THUMB Flash Debug 160k/ldblib.o
 .text          0x00000000        0x0 THUMB Flash Debug 160k/ldebug.o
 .data          0x00000000        0x0 THUMB Flash Debug 160k/ldebug.o
 .bss           0x00000000        0x0 THUMB Flash Debug 160k/ldebug.o
 .text          0x00000000        0x0 THUMB Flash Debug 160k/ldo.o
 .data          0x00000000        0x0 THUMB Flash Debug 160k/ldo.o
 .bss           0x00000000        0x0 THUMB Flash Debug 160k/ldo.o
 .text          0x00000000        0x0 THUMB Flash Debug 160k/ldump.o
 .data          0x00000000        0x0 THUMB Flash Debug 160k/ldump.o
 .bss           0x00000000        0x0 THUMB Flash Debug 160k/ldump.o
 .text          0x00000000        0x0 THUMB Flash Debug 160k/lfunc.o
 .data          0x00000000        0x0 THUMB Flash Debug 160k/lfunc.o
 .bss           0x00000000        0x0 THUMB Flash Debug 160k/lfunc.o
 .text          0x00000000        0x0 THUMB Flash Debug 160k/lgc.o
 .data          0x00000000        0x0 THUMB Flash Debug 160k/lgc.o
 .bss           0x00000000        0x0 THUMB Flash Debug 160k/lgc.o
 .text          0x00000000        0x0 THUMB Flash Debug 160k/linit.o
 .data          0x00000000        0x0 THUMB Flash Debug 160k/linit.o
 .bss           0x00000000        0x0 THUMB Flash Debug 160k/linit.o
 .text          0x00000000        0x0 THUMB Flash Debug 160k/liolib.o
 .data          0x00000000        0x0 THUMB Flash Debug 160k/liolib.o
 .bss           0x00000000        0x0 THUMB Flash Debug 160k/liolib.o
 .text          0x00000000        0x0 THUMB Flash Debug 160k/llex.o
 .data          0x00000000        0x0 THUMB Flash Debug 160k/llex.o
 .bss           0x00000000        0x0 THUMB Flash Debug 160k/llex.o
 .text          0x00000000        0x0 THUMB Flash Debug 160k/lmathlib.o
 .data          0x00000000        0x0 THUMB Flash Debug 160k/lmathlib.o
 .bss           0x00000000        0x0 THUMB Flash Debug 160k/lmathlib.o
 .text          0x00000000        0x0 THUMB Flash Debug 160k/lmem.o
 .data          0x00000000        0x0 THUMB Flash Debug 160k/lmem.o
 .bss           0x00000000        0x0 THUMB Flash Debug 160k/lmem.o
 .text          0x00000000        0x0 THUMB Flash Debug 160k/loadlib.o
 .data          0x00000000        0x0 THUMB Flash Debug 160k/loadlib.o
 .bss           0x00000000        0x0 THUMB Flash Debug 160k/loadlib.o
 .text          0x00000000        0x0 THUMB Flash Debug 160k/lobject.o
 .data          0x00000000        0x0 THUMB Flash Debug 160k/lobject.o
 .bss           0x00000000        0x0 THUMB Flash Debug 160k/lobject.o
 .text          0x00000000        0x0 THUMB Flash Debug 160k/lopcodes.o
 .data          0x00000000        0x0 THUMB Flash Debug 160k/lopcodes.o
 .bss           0x00000000        0x0 THUMB Flash Debug 160k/lopcodes.o
 .rodata        0x00000000      0x168 THUMB Flash Debug 160k/lopcodes.o
 .rodata.luaP_opnames
                0x00000000       0xc0 THUMB Flash Debug 160k/lopcodes.o
 .text          0x00000000        0x0 THUMB Flash Debug 160k/loslib.o
 .data          0x00000000        0x0 THUMB Flash Debug 160k/loslib.o
 .bss           0x00000000        0x0 THUMB Flash Debug 160k/loslib.o
 .text          0x00000000        0x0 THUMB Flash Debug 160k/lparser.o
 .data          0x00000000        0x0 THUMB Flash Debug 160k/lparser.o
 .bss           0x00000000        0x0 THUMB Flash Debug 160k/lparser.o
 .text          0x00000000        0x0 THUMB Flash Debug 160k/lstate.o
 .data          0x00000000        0x0 THUMB Flash Debug 160k/lstate.o
 .bss           0x00000000        0x0 THUMB Flash Debug 160k/lstate.o
 .text          0x00000000        0x0 THUMB Flash Debug 160k/lstring.o
 .data          0x00000000        0x0 THUMB Flash Debug 160k/lstring.o
 .bss           0x00000000        0x0 THUMB Flash Debug 160k/lstring.o
 .text          0x00000000        0x0 THUMB Flash Debug 160k/lstrlib.o
 .data          0x00000000        0x0 THUMB Flash Debug 160k/lstrlib.o
 .bss           0x00000000        0x0 THUMB Flash Debug 160k/lstrlib.o
 .text          0x00000000        0x0 THUMB Flash Debug 160k/ltable.o
 .data          0x00000000        0x0 THUMB Flash Debug 160k/ltable.o
 .bss           0x00000000        0x0 THUMB Flash Debug 160k/ltable.o
 .text          0x00000000        0x0 THUMB Flash Debug 160k/ltablib.o
 .data          0x00000000        0x0 THUMB Flash Debug 160k/ltablib.o
 .bss           0x00000000        0x0 THUMB Flash Debug 160k/ltablib.o
 .text          0x00000000        0x0 THUMB Flash Debug 160k/ltm.o
 .data          0x00000000        0x0 THUMB Flash Debug 160k/ltm.o
 .bss           0x00000000        0x0 THUMB Flash Debug 160k/ltm.o
 .text          0x00000000        0x0 THUMB Flash Debug 160k/lundump.o
 .data          0x00000000        0x0 THUMB Flash Debug 160k/lundump.o
 .bss           0x00000000        0x0 THUMB Flash Debug 160k/lundump.o
 .text          0x00000000        0x0 THUMB Flash Debug 160k/lutf8lib.o
 .data          0x00000000        0x0 THUMB Flash Debug 160k/lutf8lib.o
 .bss           0x00000000        0x0 THUMB Flash Debug 160k/lutf8lib.o
 .text          0x00000000        0x0 THUMB Flash Debug 160k/lvm.o
 .data          0x00000000        0x0 THUMB Flash Debug 160k/lvm.o
 .bss           0x00000000        0x0 THUMB Flash Debug 160k/lvm.o
 .text          0x00000000        0x0 THUMB Flash Debug 160k/lzio.o
 .data          0x00000000        0x0 THUMB Flash Debug 160k/lzio.o
 .bss           0x00000000        0x0 THUMB Flash Debug 160k/lzio.o
 .text          0x00000000        0x0 THUMB Flash Debug 160k/lua_cjson.o
 .data          0x00000000        0x0 THUMB Flash Debug 160k/lua_cjson.o
 .bss           0x00000000        0x0 THUMB Flash Debug 160k/lua_cjson.o
 .text          0x00000000        0x0 THUMB Flash Debug 160k/strbuf.o
 .data          0x00000000        0x0 THUMB Flash Debug 160k/strbuf.o
 .bss           0x00000000        0x0 THUMB Flash Debug 160k/strbuf.o
 .text.strbuf_ensure_empty_length
                0x00000000       0x30 THUMB Flash Debug 160k/strbuf.o
 .text.strbuf_set_increment
                0x00000000       0x34 THUMB Flash Debug 160k/strbuf.o
 .text.strbuf_free_to_string
                0x00000000       0x44 THUMB Flash Debug 160k/strbuf.o
 .text.strbuf_append_fmt
                0x00000000       0x64 THUMB Flash Debug 160k/strbuf.o
 .text.strbuf_append_fmt_retry
                0x00000000       0x90 THUMB Flash Debug 160k/strbuf.o
 .text          0x00000000        0x0 THUMB Flash Debug 160k/fpconv.o
 .data          0x00000000        0x0 THUMB Flash Debug 160k/fpconv.o
 .bss           0x00000000        0x0 THUMB Flash Debug 160k/fpconv.o
 .text.fpconv_update_locale
                0x00000000       0x6c THUMB Flash Debug 160k/fpconv.o
 .text.fpconv_init
                0x00000000        0xc THUMB Flash Debug 160k/fpconv.o
 .text          0x00000000        0x0 THUMB Flash Debug 160k/thumb_crt0.o
 .data          0x00000000        0x0 THUMB Flash Debug 160k/thumb_crt0.o
 .bss           0x00000000        0x0 THUMB Flash Debug 160k/thumb_crt0.o
 .stack         0x00000000        0x0 THUMB Flash Debug 160k/thumb_crt0.o
 .stack_process
                0x00000000        0x0 THUMB Flash Debug 160k/thumb_crt0.o
 .heap          0x00000000        0x0 THUMB Flash Debug 160k/thumb_crt0.o
 .text          0x00000000        0x0 THUMB Flash Debug 160k/SAM_Startup.o
 .data          0x00000000        0x0 THUMB Flash Debug 160k/SAM_Startup.o
 .bss           0x00000000        0x0 THUMB Flash Debug 160k/SAM_Startup.o
 .text          0x00000000        0x0 THUMB Flash Debug 160k/system_sam.o
 .data          0x00000000        0x0 THUMB Flash Debug 160k/system_sam.o
 .bss           0x00000000        0x0 THUMB Flash Debug 160k/system_sam.o
 .text.SystemCoreClockUpdate
                0x00000000      0x2b8 THUMB Flash Debug 160k/system_sam.o
 .text.system_init_flash
                0x00000000       0xb8 THUMB Flash Debug 160k/system_sam.o
 .text.libc     0x00000000        0x0 C:/Program Files/Rowley Associates Limited/CrossWorks for ARM 2.3/lib/libm_v7em_t_le_eabi.a(libm_asm.o)
 .data.libc     0x00000000        0x0 C:/Program Files/Rowley Associates Limited/CrossWorks for ARM 2.3/lib/libm_v7em_t_le_eabi.a(libm_asm.o)
 .bss.libc      0x00000000        0x0 C:/Program Files/Rowley Associates Limited/CrossWorks for ARM 2.3/lib/libm_v7em_t_le_eabi.a(libm_asm.o)
 .text.libc.__uint32_to_float32
                0x00000000       0x10 C:/Program Files/Rowley Associates Limited/CrossWorks for ARM 2.3/lib/libm_v7em_t_le_eabi.a(libm_asm.o)
 .text.libc.__int64_to_float32
                0x00000000       0x94 C:/Program Files/Rowley Associates Limited/CrossWorks for ARM 2.3/lib/libm_v7em_t_le_eabi.a(libm_asm.o)
 .text.libc.__uint64_to_float32
                0x00000000       0x10 C:/Program Files/Rowley Associates Limited/CrossWorks for ARM 2.3/lib/libm_v7em_t_le_eabi.a(libm_asm.o)
 .text.libc.__float32_to_int32
                0x00000000       0x40 C:/Program Files/Rowley Associates Limited/CrossWorks for ARM 2.3/lib/libm_v7em_t_le_eabi.a(libm_asm.o)
 .text.libc.__float32_to_int64
                0x00000000       0x7c C:/Program Files/Rowley Associates Limited/CrossWorks for ARM 2.3/lib/libm_v7em_t_le_eabi.a(libm_asm.o)
 .text.libc.__float32_to_uint32
                0x00000000       0x24 C:/Program Files/Rowley Associates Limited/CrossWorks for ARM 2.3/lib/libm_v7em_t_le_eabi.a(libm_asm.o)
 .text.libc.__float32_to_uint64
                0x00000000       0x48 C:/Program Files/Rowley Associates Limited/CrossWorks for ARM 2.3/lib/libm_v7em_t_le_eabi.a(libm_asm.o)
 .text.libc.__float32_add
                0x00000000      0x138 C:/Program Files/Rowley Associates Limited/CrossWorks for ARM 2.3/lib/libm_v7em_t_le_eabi.a(libm_asm.o)
 .text.libc.__float32_mul
                0x00000000       0xd4 C:/Program Files/Rowley Associates Limited/CrossWorks for ARM 2.3/lib/libm_v7em_t_le_eabi.a(libm_asm.o)
 .text.libc.__float32_cmp
                0x00000000       0x44 C:/Program Files/Rowley Associates Limited/CrossWorks for ARM 2.3/lib/libm_v7em_t_le_eabi.a(libm_asm.o)
 .text.libc.__aeabi_fcmpeq
                0x00000000       0x14 C:/Program Files/Rowley Associates Limited/CrossWorks for ARM 2.3/lib/libm_v7em_t_le_eabi.a(libm_asm.o)
 .text.libc.__aeabi_fcmplt
                0x00000000       0x18 C:/Program Files/Rowley Associates Limited/CrossWorks for ARM 2.3/lib/libm_v7em_t_le_eabi.a(libm_asm.o)
 .text.libc.__aeabi_fcmple
                0x00000000       0x14 C:/Program Files/Rowley Associates Limited/CrossWorks for ARM 2.3/lib/libm_v7em_t_le_eabi.a(libm_asm.o)
 .text.libc.__aeabi_fcmpge
                0x00000000       0x18 C:/Program Files/Rowley Associates Limited/CrossWorks for ARM 2.3/lib/libm_v7em_t_le_eabi.a(libm_asm.o)
 .text.libc.__aeabi_fcmpgt
                0x00000000       0x10 C:/Program Files/Rowley Associates Limited/CrossWorks for ARM 2.3/lib/libm_v7em_t_le_eabi.a(libm_asm.o)
 .text.libc.__float32_signbit
                0x00000000        0x8 C:/Program Files/Rowley Associates Limited/CrossWorks for ARM 2.3/lib/libm_v7em_t_le_eabi.a(libm_asm.o)
 .text.libc.__float64_signbit
                0x00000000        0x8 C:/Program Files/Rowley Associates Limited/CrossWorks for ARM 2.3/lib/libm_v7em_t_le_eabi.a(libm_asm.o)
 .text.libc.__float32_isnan
                0x00000000       0x10 C:/Program Files/Rowley Associates Limited/CrossWorks for ARM 2.3/lib/libm_v7em_t_le_eabi.a(libm_asm.o)
 .text.libc.__float32_isfinite
                0x00000000        0xc C:/Program Files/Rowley Associates Limited/CrossWorks for ARM 2.3/lib/libm_v7em_t_le_eabi.a(libm_asm.o)
 .text.libc.__float64_isfinite
                0x00000000       0x10 C:/Program Files/Rowley Associates Limited/CrossWorks for ARM 2.3/lib/libm_v7em_t_le_eabi.a(libm_asm.o)
 .text.libc.__float32_isnormal
                0x00000000       0x18 C:/Program Files/Rowley Associates Limited/CrossWorks for ARM 2.3/lib/libm_v7em_t_le_eabi.a(libm_asm.o)
 .text.libc.__float64_isnormal
                0x00000000       0x18 C:/Program Files/Rowley Associates Limited/CrossWorks for ARM 2.3/lib/libm_v7em_t_le_eabi.a(libm_asm.o)
 .text.libc.__float32_classify
                0x00000000       0x24 C:/Program Files/Rowley Associates Limited/CrossWorks for ARM 2.3/lib/libm_v7em_t_le_eabi.a(libm_asm.o)
 .text.libc.__float64_classify
                0x00000000       0x28 C:/Program Files/Rowley Associates Limited/CrossWorks for ARM 2.3/lib/libm_v7em_t_le_eabi.a(libm_asm.o)
 .rodata.libc.__float32_infinity
                0x00000000        0x4 C:/Program Files/Rowley Associates Limited/CrossWorks for ARM 2.3/lib/libm_v7em_t_le_eabi.a(libm_asm.o)
 .rodata.libc.__float32_nan
                0x00000000        0x4 C:/Program Files/Rowley Associates Limited/CrossWorks for ARM 2.3/lib/libm_v7em_t_le_eabi.a(libm_asm.o)
 .text          0x00000000        0x0 C:/Program Files/Rowley Associates Limited/CrossWorks for ARM 2.3/lib/libm_v7em_t_le_eabi.a(libm2.o)
 .data          0x00000000        0x0 C:/Program Files/Rowley Associates Limited/CrossWorks for ARM 2.3/lib/libm_v7em_t_le_eabi.a(libm2.o)
 .bss           0x00000000        0x0 C:/Program Files/Rowley Associates Limited/CrossWorks for ARM 2.3/lib/libm_v7em_t_le_eabi.a(libm2.o)
 .text.libc     0x00000000        0x0 C:/Program Files/Rowley Associates Limited/CrossWorks for ARM 2.3/lib/libm_v7em_t_le_eabi.a(libm2.o)
 .text.libc.logf.part.4
                0x00000000      0x14c C:/Program Files/Rowley Associates Limited/CrossWorks for ARM 2.3/lib/libm_v7em_t_le_eabi.a(libm2.o)
 .text.libc.sqrtf.part.6
                0x00000000       0x84 C:/Program Files/Rowley Associates Limited/CrossWorks for ARM 2.3/lib/libm_v7em_t_le_eabi.a(libm2.o)
 .text.libc.__asinacosf
                0x00000000      0x21c C:/Program Files/Rowley Associates Limited/CrossWorks for ARM 2.3/lib/libm_v7em_t_le_eabi.a(libm2.o)
 .text.libc.__poly1_eval
                0x00000000       0x94 C:/Program Files/Rowley Associates Limited/CrossWorks for ARM 2.3/lib/libm_v7em_t_le_eabi.a(libm2.o)
 .text.libc.__poly1_evalf
                0x00000000       0x88 C:/Program Files/Rowley Associates Limited/CrossWorks for ARM 2.3/lib/libm_v7em_t_le_eabi.a(libm2.o)
 .text.libc.__poly_eval
                0x00000000       0x8c C:/Program Files/Rowley Associates Limited/CrossWorks for ARM 2.3/lib/libm_v7em_t_le_eabi.a(libm2.o)
 .text.libc.__poly_evalf
                0x00000000       0x7c C:/Program Files/Rowley Associates Limited/CrossWorks for ARM 2.3/lib/libm_v7em_t_le_eabi.a(libm2.o)
 .text.libc.__sincos
                0x00000000      0x228 C:/Program Files/Rowley Associates Limited/CrossWorks for ARM 2.3/lib/libm_v7em_t_le_eabi.a(libm2.o)
 .text.libc.__sincosf
                0x00000000      0x140 C:/Program Files/Rowley Associates Limited/CrossWorks for ARM 2.3/lib/libm_v7em_t_le_eabi.a(libm2.o)
 .text.libc.acosf
                0x00000000        0x8 C:/Program Files/Rowley Associates Limited/CrossWorks for ARM 2.3/lib/libm_v7em_t_le_eabi.a(libm2.o)
 .text.libc.acosh
                0x00000000      0x238 C:/Program Files/Rowley Associates Limited/CrossWorks for ARM 2.3/lib/libm_v7em_t_le_eabi.a(libm2.o)
 .text.libc.acoshf
                0x00000000      0x1a4 C:/Program Files/Rowley Associates Limited/CrossWorks for ARM 2.3/lib/libm_v7em_t_le_eabi.a(libm2.o)
 .text.libc.asinf
                0x00000000        0x8 C:/Program Files/Rowley Associates Limited/CrossWorks for ARM 2.3/lib/libm_v7em_t_le_eabi.a(libm2.o)
 .text.libc.asinh
                0x00000000      0x218 C:/Program Files/Rowley Associates Limited/CrossWorks for ARM 2.3/lib/libm_v7em_t_le_eabi.a(libm2.o)
 .text.libc.asinhf
                0x00000000      0x190 C:/Program Files/Rowley Associates Limited/CrossWorks for ARM 2.3/lib/libm_v7em_t_le_eabi.a(libm2.o)
 .text.libc.atanf
                0x00000000      0x184 C:/Program Files/Rowley Associates Limited/CrossWorks for ARM 2.3/lib/libm_v7em_t_le_eabi.a(libm2.o)
 .text.libc.atan2f
                0x00000000       0xd4 C:/Program Files/Rowley Associates Limited/CrossWorks for ARM 2.3/lib/libm_v7em_t_le_eabi.a(libm2.o)
 .text.libc.atanh
                0x00000000      0x16c C:/Program Files/Rowley Associates Limited/CrossWorks for ARM 2.3/lib/libm_v7em_t_le_eabi.a(libm2.o)
 .text.libc.atanhf
                0x00000000       0xe8 C:/Program Files/Rowley Associates Limited/CrossWorks for ARM 2.3/lib/libm_v7em_t_le_eabi.a(libm2.o)
 .text.libc.cosf
                0x00000000       0x4c C:/Program Files/Rowley Associates Limited/CrossWorks for ARM 2.3/lib/libm_v7em_t_le_eabi.a(libm2.o)
 .text.libc.cosh
                0x00000000      0x1e0 C:/Program Files/Rowley Associates Limited/CrossWorks for ARM 2.3/lib/libm_v7em_t_le_eabi.a(libm2.o)
 .text.libc.coshf
                0x00000000      0x30c C:/Program Files/Rowley Associates Limited/CrossWorks for ARM 2.3/lib/libm_v7em_t_le_eabi.a(libm2.o)
 .text.libc.expf
                0x00000000      0x140 C:/Program Files/Rowley Associates Limited/CrossWorks for ARM 2.3/lib/libm_v7em_t_le_eabi.a(libm2.o)
 .text.libc.fmax
                0x00000000       0x1c C:/Program Files/Rowley Associates Limited/CrossWorks for ARM 2.3/lib/libm_v7em_t_le_eabi.a(libm2.o)
 .text.libc.fmaxf
                0x00000000       0x14 C:/Program Files/Rowley Associates Limited/CrossWorks for ARM 2.3/lib/libm_v7em_t_le_eabi.a(libm2.o)
 .text.libc.fmin
                0x00000000       0x1c C:/Program Files/Rowley Associates Limited/CrossWorks for ARM 2.3/lib/libm_v7em_t_le_eabi.a(libm2.o)
 .text.libc.fminf
                0x00000000       0x14 C:/Program Files/Rowley Associates Limited/CrossWorks for ARM 2.3/lib/libm_v7em_t_le_eabi.a(libm2.o)
 .text.libc.hypot
                0x00000000      0x21c C:/Program Files/Rowley Associates Limited/CrossWorks for ARM 2.3/lib/libm_v7em_t_le_eabi.a(libm2.o)
 .text.libc.hypotf
                0x00000000      0x198 C:/Program Files/Rowley Associates Limited/CrossWorks for ARM 2.3/lib/libm_v7em_t_le_eabi.a(libm2.o)
 .text.libc.log10f
                0x00000000       0x6c C:/Program Files/Rowley Associates Limited/CrossWorks for ARM 2.3/lib/libm_v7em_t_le_eabi.a(libm2.o)
 .text.libc.logf
                0x00000000       0x48 C:/Program Files/Rowley Associates Limited/CrossWorks for ARM 2.3/lib/libm_v7em_t_le_eabi.a(libm2.o)
 .text.libc.modf
                0x00000000       0xac C:/Program Files/Rowley Associates Limited/CrossWorks for ARM 2.3/lib/libm_v7em_t_le_eabi.a(libm2.o)
 .text.libc.modff
                0x00000000       0x50 C:/Program Files/Rowley Associates Limited/CrossWorks for ARM 2.3/lib/libm_v7em_t_le_eabi.a(libm2.o)
 .text.libc.powf
                0x00000000      0x244 C:/Program Files/Rowley Associates Limited/CrossWorks for ARM 2.3/lib/libm_v7em_t_le_eabi.a(libm2.o)
 .text.libc.scalbn
                0x00000000       0x68 C:/Program Files/Rowley Associates Limited/CrossWorks for ARM 2.3/lib/libm_v7em_t_le_eabi.a(libm2.o)
 .text.libc.scalbnf
                0x00000000        0x4 C:/Program Files/Rowley Associates Limited/CrossWorks for ARM 2.3/lib/libm_v7em_t_le_eabi.a(libm2.o)
 .text.libc.sinf
                0x00000000       0x30 C:/Program Files/Rowley Associates Limited/CrossWorks for ARM 2.3/lib/libm_v7em_t_le_eabi.a(libm2.o)
 .text.libc.sinh
                0x00000000      0x290 C:/Program Files/Rowley Associates Limited/CrossWorks for ARM 2.3/lib/libm_v7em_t_le_eabi.a(libm2.o)
 .text.libc.sinhf
                0x00000000      0x1e8 C:/Program Files/Rowley Associates Limited/CrossWorks for ARM 2.3/lib/libm_v7em_t_le_eabi.a(libm2.o)
 .text.libc.tanf
                0x00000000      0x170 C:/Program Files/Rowley Associates Limited/CrossWorks for ARM 2.3/lib/libm_v7em_t_le_eabi.a(libm2.o)
 .text.libc.tanh
                0x00000000      0x258 C:/Program Files/Rowley Associates Limited/CrossWorks for ARM 2.3/lib/libm_v7em_t_le_eabi.a(libm2.o)
 .text.libc.tanhf
                0x00000000      0x290 C:/Program Files/Rowley Associates Limited/CrossWorks for ARM 2.3/lib/libm_v7em_t_le_eabi.a(libm2.o)
 .text.libc.sqrtf
                0x00000000       0x38 C:/Program Files/Rowley Associates Limited/CrossWorks for ARM 2.3/lib/libm_v7em_t_le_eabi.a(libm2.o)
 .text.libc.cbrtf
                0x00000000      0x108 C:/Program Files/Rowley Associates Limited/CrossWorks for ARM 2.3/lib/libm_v7em_t_le_eabi.a(libm2.o)
 .text.libc.cbrt
                0x00000000      0x2c0 C:/Program Files/Rowley Associates Limited/CrossWorks for ARM 2.3/lib/libm_v7em_t_le_eabi.a(libm2.o)
 .text.libc.fmodf
                0x00000000       0xe4 C:/Program Files/Rowley Associates Limited/CrossWorks for ARM 2.3/lib/libm_v7em_t_le_eabi.a(libm2.o)
 .rodata.libc.__asinacosf_a
                0x00000000        0x8 C:/Program Files/Rowley Associates Limited/CrossWorks for ARM 2.3/lib/libm_v7em_t_le_eabi.a(libm2.o)
 .rodata.libc.__asinacosf_b
                0x00000000        0x8 C:/Program Files/Rowley Associates Limited/CrossWorks for ARM 2.3/lib/libm_v7em_t_le_eabi.a(libm2.o)
 .rodata.libc.atanf_a
                0x00000000       0x10 C:/Program Files/Rowley Associates Limited/CrossWorks for ARM 2.3/lib/libm_v7em_t_le_eabi.a(libm2.o)
 .text.libc     0x00000000        0x0 C:/Program Files/Rowley Associates Limited/CrossWorks for ARM 2.3/lib/libm_v7em_t_le_eabi.a(libm2_asm.o)
 .data.libc     0x00000000        0x0 C:/Program Files/Rowley Associates Limited/CrossWorks for ARM 2.3/lib/libm_v7em_t_le_eabi.a(libm2_asm.o)
 .bss.libc      0x00000000        0x0 C:/Program Files/Rowley Associates Limited/CrossWorks for ARM 2.3/lib/libm_v7em_t_le_eabi.a(libm2_asm.o)
 .text.libc.fabsf
                0x00000000        0x8 C:/Program Files/Rowley Associates Limited/CrossWorks for ARM 2.3/lib/libm_v7em_t_le_eabi.a(libm2_asm.o)
 .text.libc.ceilf
                0x00000000       0x60 C:/Program Files/Rowley Associates Limited/CrossWorks for ARM 2.3/lib/libm_v7em_t_le_eabi.a(libm2_asm.o)
 .text.libc.floorf
                0x00000000       0x5c C:/Program Files/Rowley Associates Limited/CrossWorks for ARM 2.3/lib/libm_v7em_t_le_eabi.a(libm2_asm.o)
 .text.libc.ldexpf
                0x00000000       0x38 C:/Program Files/Rowley Associates Limited/CrossWorks for ARM 2.3/lib/libm_v7em_t_le_eabi.a(libm2_asm.o)
 .text.libc.frexpf
                0x00000000       0x2c C:/Program Files/Rowley Associates Limited/CrossWorks for ARM 2.3/lib/libm_v7em_t_le_eabi.a(libm2_asm.o)
 .text.libc     0x00000000        0x0 C:/Program Files/Rowley Associates Limited/CrossWorks for ARM 2.3/lib/libc_v7em_t_le_eabi.a(libc_asm.o)
 .data.libc     0x00000000        0x0 C:/Program Files/Rowley Associates Limited/CrossWorks for ARM 2.3/lib/libc_v7em_t_le_eabi.a(libc_asm.o)
 .bss.libc      0x00000000        0x0 C:/Program Files/Rowley Associates Limited/CrossWorks for ARM 2.3/lib/libc_v7em_t_le_eabi.a(libc_asm.o)
 .text.libc._call_via_r4
                0x00000000        0x4 C:/Program Files/Rowley Associates Limited/CrossWorks for ARM 2.3/lib/libc_v7em_t_le_eabi.a(libc_asm.o)
 .text.libc._call_via_r1
                0x00000000        0x4 C:/Program Files/Rowley Associates Limited/CrossWorks for ARM 2.3/lib/libc_v7em_t_le_eabi.a(libc_asm.o)
 .text.libc._call_via_r2
                0x00000000        0x4 C:/Program Files/Rowley Associates Limited/CrossWorks for ARM 2.3/lib/libc_v7em_t_le_eabi.a(libc_asm.o)
 .text.libc._call_via_r3
                0x00000000        0x4 C:/Program Files/Rowley Associates Limited/CrossWorks for ARM 2.3/lib/libc_v7em_t_le_eabi.a(libc_asm.o)
 .text.libc._call_via_r0
                0x00000000        0x4 C:/Program Files/Rowley Associates Limited/CrossWorks for ARM 2.3/lib/libc_v7em_t_le_eabi.a(libc_asm.o)
 .text.libc._call_via_r5
                0x00000000        0x4 C:/Program Files/Rowley Associates Limited/CrossWorks for ARM 2.3/lib/libc_v7em_t_le_eabi.a(libc_asm.o)
 .text.libc._call_via_sp
                0x00000000        0x4 C:/Program Files/Rowley Associates Limited/CrossWorks for ARM 2.3/lib/libc_v7em_t_le_eabi.a(libc_asm.o)
 .text.libc._call_via_r7
                0x00000000        0x4 C:/Program Files/Rowley Associates Limited/CrossWorks for ARM 2.3/lib/libc_v7em_t_le_eabi.a(libc_asm.o)
 .text.libc._call_via_r8
                0x00000000        0x4 C:/Program Files/Rowley Associates Limited/CrossWorks for ARM 2.3/lib/libc_v7em_t_le_eabi.a(libc_asm.o)
 .text.libc._call_via_r9
                0x00000000        0x4 C:/Program Files/Rowley Associates Limited/CrossWorks for ARM 2.3/lib/libc_v7em_t_le_eabi.a(libc_asm.o)
 .text.libc._call_via_sl
                0x00000000        0x4 C:/Program Files/Rowley Associates Limited/CrossWorks for ARM 2.3/lib/libc_v7em_t_le_eabi.a(libc_asm.o)
 .text.libc._call_via_r6
                0x00000000        0x4 C:/Program Files/Rowley Associates Limited/CrossWorks for ARM 2.3/lib/libc_v7em_t_le_eabi.a(libc_asm.o)
 .text.libc._call_via_lr
                0x00000000        0x4 C:/Program Files/Rowley Associates Limited/CrossWorks for ARM 2.3/lib/libc_v7em_t_le_eabi.a(libc_asm.o)
 .text.libc._call_via_ip
                0x00000000        0x4 C:/Program Files/Rowley Associates Limited/CrossWorks for ARM 2.3/lib/libc_v7em_t_le_eabi.a(libc_asm.o)
 .text.libc._call_via_fp
                0x00000000        0x4 C:/Program Files/Rowley Associates Limited/CrossWorks for ARM 2.3/lib/libc_v7em_t_le_eabi.a(libc_asm.o)
 .text.libc.__int64_umod
                0x00000000        0xc C:/Program Files/Rowley Associates Limited/CrossWorks for ARM 2.3/lib/libc_v7em_t_le_eabi.a(libc_asm.o)
 .text.libc.__int64_asr
                0x00000000       0x28 C:/Program Files/Rowley Associates Limited/CrossWorks for ARM 2.3/lib/libc_v7em_t_le_eabi.a(libc_asm.o)
 .text.libc.__int64_div
                0x00000000       0x44 C:/Program Files/Rowley Associates Limited/CrossWorks for ARM 2.3/lib/libc_v7em_t_le_eabi.a(libc_asm.o)
 .text.libc.__int64_lsl
                0x00000000       0x28 C:/Program Files/Rowley Associates Limited/CrossWorks for ARM 2.3/lib/libc_v7em_t_le_eabi.a(libc_asm.o)
 .text.libc.__int64_lsr
                0x00000000       0x28 C:/Program Files/Rowley Associates Limited/CrossWorks for ARM 2.3/lib/libc_v7em_t_le_eabi.a(libc_asm.o)
 .text.libc.__int64_mod
                0x00000000       0x48 C:/Program Files/Rowley Associates Limited/CrossWorks for ARM 2.3/lib/libc_v7em_t_le_eabi.a(libc_asm.o)
 .text.libc.__int64_cmp
                0x00000000       0x1c C:/Program Files/Rowley Associates Limited/CrossWorks for ARM 2.3/lib/libc_v7em_t_le_eabi.a(libc_asm.o)
 .text.libc.__int64_ucmp
                0x00000000       0x18 C:/Program Files/Rowley Associates Limited/CrossWorks for ARM 2.3/lib/libc_v7em_t_le_eabi.a(libc_asm.o)
 .text.libc.muldi3
                0x00000000       0x18 C:/Program Files/Rowley Associates Limited/CrossWorks for ARM 2.3/lib/libc_v7em_t_le_eabi.a(libc_asm.o)
 .text.libc.__int32_umod
                0x00000000        0xc C:/Program Files/Rowley Associates Limited/CrossWorks for ARM 2.3/lib/libc_v7em_t_le_eabi.a(libc_asm.o)
 .text.libc.__int32_div
                0x00000000      0x310 C:/Program Files/Rowley Associates Limited/CrossWorks for ARM 2.3/lib/libc_v7em_t_le_eabi.a(libc_asm.o)
 .rodata.libc.__aeabi_idiv
                0x00000000        0xa C:/Program Files/Rowley Associates Limited/CrossWorks for ARM 2.3/lib/libc_v7em_t_le_eabi.a(libc_asm.o)
 .rodata.libc.__aeabi_uidiv
                0x00000000       0x46 C:/Program Files/Rowley Associates Limited/CrossWorks for ARM 2.3/lib/libc_v7em_t_le_eabi.a(libc_asm.o)
 .text.libc.__int32_mod
                0x00000000        0xc C:/Program Files/Rowley Associates Limited/CrossWorks for ARM 2.3/lib/libc_v7em_t_le_eabi.a(libc_asm.o)
 .text.libc.__aeabi_uidivmod
                0x00000000       0x2c C:/Program Files/Rowley Associates Limited/CrossWorks for ARM 2.3/lib/libc_v7em_t_le_eabi.a(libc_asm.o)
 .text.libc.__aeabi_idivmod
                0x00000000       0x4c C:/Program Files/Rowley Associates Limited/CrossWorks for ARM 2.3/lib/libc_v7em_t_le_eabi.a(libc_asm.o)
 .text.libc.ctl_count_leading_zeros_32
                0x00000000       0x40 C:/Program Files/Rowley Associates Limited/CrossWorks for ARM 2.3/lib/libc_v7em_t_le_eabi.a(libc_asm.o)
 .text.libc.ctl_count_leading_zeros_16
                0x00000000       0x34 C:/Program Files/Rowley Associates Limited/CrossWorks for ARM 2.3/lib/libc_v7em_t_le_eabi.a(libc_asm.o)
 .text.libc.__gnu_thumb1_case_shi
                0x00000000       0x14 C:/Program Files/Rowley Associates Limited/CrossWorks for ARM 2.3/lib/libc_v7em_t_le_eabi.a(libc_asm.o)
 .text.libc.__gnu_thumb1_case_si
                0x00000000       0x18 C:/Program Files/Rowley Associates Limited/CrossWorks for ARM 2.3/lib/libc_v7em_t_le_eabi.a(libc_asm.o)
 .text.libc.__gnu_thumb1_case_sqi
                0x00000000       0x14 C:/Program Files/Rowley Associates Limited/CrossWorks for ARM 2.3/lib/libc_v7em_t_le_eabi.a(libc_asm.o)
 .text.libc.__gnu_thumb1_case_uhi
                0x00000000       0x14 C:/Program Files/Rowley Associates Limited/CrossWorks for ARM 2.3/lib/libc_v7em_t_le_eabi.a(libc_asm.o)
 .text.libc.__gnu_thumb1_case_uqi
                0x00000000       0x14 C:/Program Files/Rowley Associates Limited/CrossWorks for ARM 2.3/lib/libc_v7em_t_le_eabi.a(libc_asm.o)
 .text          0x00000000        0x0 C:/Program Files/Rowley Associates Limited/CrossWorks for ARM 2.3/lib/libc_v7em_t_le_eabi.a(libc2.o)
 .data          0x00000000        0x0 C:/Program Files/Rowley Associates Limited/CrossWorks for ARM 2.3/lib/libc_v7em_t_le_eabi.a(libc2.o)
 .bss           0x00000000        0x0 C:/Program Files/Rowley Associates Limited/CrossWorks for ARM 2.3/lib/libc_v7em_t_le_eabi.a(libc2.o)
 .text.libc     0x00000000        0x0 C:/Program Files/Rowley Associates Limited/CrossWorks for ARM 2.3/lib/libc_v7em_t_le_eabi.a(libc2.o)
 .text.libc.twodigit
                0x00000000       0x28 C:/Program Files/Rowley Associates Limited/CrossWorks for ARM 2.3/lib/libc_v7em_t_le_eabi.a(libc2.o)
 .text.libc.__stdin_ungetc
                0x00000000        0xc C:/Program Files/Rowley Associates Limited/CrossWorks for ARM 2.3/lib/libc_v7em_t_le_eabi.a(libc2.o)
 .text.libc.__xlltoa
                0x00000000       0x80 C:/Program Files/Rowley Associates Limited/CrossWorks for ARM 2.3/lib/libc_v7em_t_le_eabi.a(libc2.o)
 .text.libc.__xltoa
                0x00000000       0x58 C:/Program Files/Rowley Associates Limited/CrossWorks for ARM 2.3/lib/libc_v7em_t_le_eabi.a(libc2.o)
 .text.libc.__xtoa
                0x00000000       0x58 C:/Program Files/Rowley Associates Limited/CrossWorks for ARM 2.3/lib/libc_v7em_t_le_eabi.a(libc2.o)
 .text.libc.asctime_r
                0x00000000       0xfc C:/Program Files/Rowley Associates Limited/CrossWorks for ARM 2.3/lib/libc_v7em_t_le_eabi.a(libc2.o)
 .text.libc.asctime
                0x00000000       0x10 C:/Program Files/Rowley Associates Limited/CrossWorks for ARM 2.3/lib/libc_v7em_t_le_eabi.a(libc2.o)
 .text.libc.atexit
                0x00000000       0x34 C:/Program Files/Rowley Associates Limited/CrossWorks for ARM 2.3/lib/libc_v7em_t_le_eabi.a(libc2.o)
 .text.libc._execute_at_exit_fns
                0x00000000       0x38 C:/Program Files/Rowley Associates Limited/CrossWorks for ARM 2.3/lib/libc_v7em_t_le_eabi.a(libc2.o)
 .text.libc.bsearch
                0x00000000       0x64 C:/Program Files/Rowley Associates Limited/CrossWorks for ARM 2.3/lib/libc_v7em_t_le_eabi.a(libc2.o)
 .text.libc.ctl_is_exact_power_of_two
                0x00000000       0x10 C:/Program Files/Rowley Associates Limited/CrossWorks for ARM 2.3/lib/libc_v7em_t_le_eabi.a(libc2.o)
 .text.libc.ctl_round_power_of_two
                0x00000000       0x20 C:/Program Files/Rowley Associates Limited/CrossWorks for ARM 2.3/lib/libc_v7em_t_le_eabi.a(libc2.o)
 .text.libc.ctl_count_leading_zeroes
                0x00000000       0x40 C:/Program Files/Rowley Associates Limited/CrossWorks for ARM 2.3/lib/libc_v7em_t_le_eabi.a(libc2.o)
 .text.libc.ctl_ilogb
                0x00000000       0x20 C:/Program Files/Rowley Associates Limited/CrossWorks for ARM 2.3/lib/libc_v7em_t_le_eabi.a(libc2.o)
 .text.libc.buddy_alloc
                0x00000000      0x108 C:/Program Files/Rowley Associates Limited/CrossWorks for ARM 2.3/lib/libc_v7em_t_le_eabi.a(libc2.o)
 .text.libc.buddy_free
                0x00000000       0xf0 C:/Program Files/Rowley Associates Limited/CrossWorks for ARM 2.3/lib/libc_v7em_t_le_eabi.a(libc2.o)
 .text.libc.buddy_heap_init
                0x00000000       0xbc C:/Program Files/Rowley Associates Limited/CrossWorks for ARM 2.3/lib/libc_v7em_t_le_eabi.a(libc2.o)
 .text.libc.__strtoull
                0x00000000      0x13c C:/Program Files/Rowley Associates Limited/CrossWorks for ARM 2.3/lib/libc_v7em_t_le_eabi.a(libc2.o)
 .text.libc.isprint
                0x00000000       0x14 C:/Program Files/Rowley Associates Limited/CrossWorks for ARM 2.3/lib/libc_v7em_t_le_eabi.a(libc2.o)
 .text.libc.isblank
                0x00000000       0x14 C:/Program Files/Rowley Associates Limited/CrossWorks for ARM 2.3/lib/libc_v7em_t_le_eabi.a(libc2.o)
 .text.libc.itoa
                0x00000000       0x20 C:/Program Files/Rowley Associates Limited/CrossWorks for ARM 2.3/lib/libc_v7em_t_le_eabi.a(libc2.o)
 .text.libc.labs
                0x00000000        0x8 C:/Program Files/Rowley Associates Limited/CrossWorks for ARM 2.3/lib/libc_v7em_t_le_eabi.a(libc2.o)
 .text.libc.linked_heap_init
                0x00000000       0x64 C:/Program Files/Rowley Associates Limited/CrossWorks for ARM 2.3/lib/libc_v7em_t_le_eabi.a(libc2.o)
 .text.libc.linked_heap_alloc
                0x00000000       0xb4 C:/Program Files/Rowley Associates Limited/CrossWorks for ARM 2.3/lib/libc_v7em_t_le_eabi.a(libc2.o)
 .text.libc.linked_heap_free
                0x00000000       0xd4 C:/Program Files/Rowley Associates Limited/CrossWorks for ARM 2.3/lib/libc_v7em_t_le_eabi.a(libc2.o)
 .text.libc.linked_heap_realloc
                0x00000000       0x28 C:/Program Files/Rowley Associates Limited/CrossWorks for ARM 2.3/lib/libc_v7em_t_le_eabi.a(libc2.o)
 .text.libc.llabs
                0x00000000       0x18 C:/Program Files/Rowley Associates Limited/CrossWorks for ARM 2.3/lib/libc_v7em_t_le_eabi.a(libc2.o)
 .text.libc.lldiv
                0x00000000       0x58 C:/Program Files/Rowley Associates Limited/CrossWorks for ARM 2.3/lib/libc_v7em_t_le_eabi.a(libc2.o)
 .text.libc.lltoa
                0x00000000       0x18 C:/Program Files/Rowley Associates Limited/CrossWorks for ARM 2.3/lib/libc_v7em_t_le_eabi.a(libc2.o)
 .text.libc.ltoa
                0x00000000       0x10 C:/Program Files/Rowley Associates Limited/CrossWorks for ARM 2.3/lib/libc_v7em_t_le_eabi.a(libc2.o)
 .text.libc.calloc
                0x00000000       0x20 C:/Program Files/Rowley Associates Limited/CrossWorks for ARM 2.3/lib/libc_v7em_t_le_eabi.a(libc2.o)
 .text.libc.memccpy
                0x00000000       0x3c C:/Program Files/Rowley Associates Limited/CrossWorks for ARM 2.3/lib/libc_v7em_t_le_eabi.a(libc2.o)
 .text.libc.mempcpy
                0x00000000       0x10 C:/Program Files/Rowley Associates Limited/CrossWorks for ARM 2.3/lib/libc_v7em_t_le_eabi.a(libc2.o)
 .text.libc.qsort
                0x00000000      0x260 C:/Program Files/Rowley Associates Limited/CrossWorks for ARM 2.3/lib/libc_v7em_t_le_eabi.a(libc2.o)
 .text.libc.sscanf
                0x00000000       0x28 C:/Program Files/Rowley Associates Limited/CrossWorks for ARM 2.3/lib/libc_v7em_t_le_eabi.a(libc2.o)
 .text.libc.strcasestr
                0x00000000       0x64 C:/Program Files/Rowley Associates Limited/CrossWorks for ARM 2.3/lib/libc_v7em_t_le_eabi.a(libc2.o)
 .text.libc.strcspn
                0x00000000       0x2c C:/Program Files/Rowley Associates Limited/CrossWorks for ARM 2.3/lib/libc_v7em_t_le_eabi.a(libc2.o)
 .text.libc.strdup
                0x00000000       0x20 C:/Program Files/Rowley Associates Limited/CrossWorks for ARM 2.3/lib/libc_v7em_t_le_eabi.a(libc2.o)
 .text.libc.strncasestr
                0x00000000       0x58 C:/Program Files/Rowley Associates Limited/CrossWorks for ARM 2.3/lib/libc_v7em_t_le_eabi.a(libc2.o)
 .text.libc.strlcat
                0x00000000       0x6c C:/Program Files/Rowley Associates Limited/CrossWorks for ARM 2.3/lib/libc_v7em_t_le_eabi.a(libc2.o)
 .text.libc.strnchr
                0x00000000       0x34 C:/Program Files/Rowley Associates Limited/CrossWorks for ARM 2.3/lib/libc_v7em_t_le_eabi.a(libc2.o)
 .text.libc.strlcpy
                0x00000000       0x44 C:/Program Files/Rowley Associates Limited/CrossWorks for ARM 2.3/lib/libc_v7em_t_le_eabi.a(libc2.o)
 .text.libc.strnlen
                0x00000000       0x28 C:/Program Files/Rowley Associates Limited/CrossWorks for ARM 2.3/lib/libc_v7em_t_le_eabi.a(libc2.o)
 .text.libc.strndup
                0x00000000       0x28 C:/Program Files/Rowley Associates Limited/CrossWorks for ARM 2.3/lib/libc_v7em_t_le_eabi.a(libc2.o)
 .text.libc.strnstr
                0x00000000       0x60 C:/Program Files/Rowley Associates Limited/CrossWorks for ARM 2.3/lib/libc_v7em_t_le_eabi.a(libc2.o)
 .text.libc.strsep
                0x00000000       0x58 C:/Program Files/Rowley Associates Limited/CrossWorks for ARM 2.3/lib/libc_v7em_t_le_eabi.a(libc2.o)
 .text.libc.strtof
                0x00000000      0x19c C:/Program Files/Rowley Associates Limited/CrossWorks for ARM 2.3/lib/libc_v7em_t_le_eabi.a(libc2.o)
 .text.libc.strtok
                0x00000000       0x98 C:/Program Files/Rowley Associates Limited/CrossWorks for ARM 2.3/lib/libc_v7em_t_le_eabi.a(libc2.o)
 .text.libc.strtok_r
                0x00000000       0x84 C:/Program Files/Rowley Associates Limited/CrossWorks for ARM 2.3/lib/libc_v7em_t_le_eabi.a(libc2.o)
 .text.libc.atol
                0x00000000       0x24 C:/Program Files/Rowley Associates Limited/CrossWorks for ARM 2.3/lib/libc_v7em_t_le_eabi.a(libc2.o)
 .text.libc.strtoll
                0x00000000       0xa4 C:/Program Files/Rowley Associates Limited/CrossWorks for ARM 2.3/lib/libc_v7em_t_le_eabi.a(libc2.o)
 .text.libc.atoll
                0x00000000       0x28 C:/Program Files/Rowley Associates Limited/CrossWorks for ARM 2.3/lib/libc_v7em_t_le_eabi.a(libc2.o)
 .text.libc.strtoul
                0x00000000       0xa0 C:/Program Files/Rowley Associates Limited/CrossWorks for ARM 2.3/lib/libc_v7em_t_le_eabi.a(libc2.o)
 .text.libc.strtoull
                0x00000000       0xac C:/Program Files/Rowley Associates Limited/CrossWorks for ARM 2.3/lib/libc_v7em_t_le_eabi.a(libc2.o)
 .text.libc.ctime
                0x00000000       0x18 C:/Program Files/Rowley Associates Limited/CrossWorks for ARM 2.3/lib/libc_v7em_t_le_eabi.a(libc2.o)
 .text.libc.ctime_r
                0x00000000       0x18 C:/Program Files/Rowley Associates Limited/CrossWorks for ARM 2.3/lib/libc_v7em_t_le_eabi.a(libc2.o)
 .text.libc.gmtime_r
                0x00000000        0xc C:/Program Files/Rowley Associates Limited/CrossWorks for ARM 2.3/lib/libc_v7em_t_le_eabi.a(libc2.o)
 .text.libc.settimeofday
                0x00000000       0x18 C:/Program Files/Rowley Associates Limited/CrossWorks for ARM 2.3/lib/libc_v7em_t_le_eabi.a(libc2.o)
 .text.libc.ulltoa
                0x00000000       0x14 C:/Program Files/Rowley Associates Limited/CrossWorks for ARM 2.3/lib/libc_v7em_t_le_eabi.a(libc2.o)
 .text.libc.ultoa
                0x00000000        0xc C:/Program Files/Rowley Associates Limited/CrossWorks for ARM 2.3/lib/libc_v7em_t_le_eabi.a(libc2.o)
 .text.libc.utoa
                0x00000000        0xc C:/Program Files/Rowley Associates Limited/CrossWorks for ARM 2.3/lib/libc_v7em_t_le_eabi.a(libc2.o)
 .text.libc.vsnprintf
                0x00000000       0x1c C:/Program Files/Rowley Associates Limited/CrossWorks for ARM 2.3/lib/libc_v7em_t_le_eabi.a(libc2.o)
 .text.libc.vsprintf
                0x00000000       0x1c C:/Program Files/Rowley Associates Limited/CrossWorks for ARM 2.3/lib/libc_v7em_t_le_eabi.a(libc2.o)
 .text.libc.vsscanf
                0x00000000       0x18 C:/Program Files/Rowley Associates Limited/CrossWorks for ARM 2.3/lib/libc_v7em_t_le_eabi.a(libc2.o)
 .text.libc.wcscat
                0x00000000       0x2c C:/Program Files/Rowley Associates Limited/CrossWorks for ARM 2.3/lib/libc_v7em_t_le_eabi.a(libc2.o)
 .text.libc.wcschr
                0x00000000       0x24 C:/Program Files/Rowley Associates Limited/CrossWorks for ARM 2.3/lib/libc_v7em_t_le_eabi.a(libc2.o)
 .text.libc.wcscmp
                0x00000000       0x24 C:/Program Files/Rowley Associates Limited/CrossWorks for ARM 2.3/lib/libc_v7em_t_le_eabi.a(libc2.o)
 .text.libc.wcscpy
                0x00000000       0x10 C:/Program Files/Rowley Associates Limited/CrossWorks for ARM 2.3/lib/libc_v7em_t_le_eabi.a(libc2.o)
 .text.libc.wcscspn
                0x00000000       0x30 C:/Program Files/Rowley Associates Limited/CrossWorks for ARM 2.3/lib/libc_v7em_t_le_eabi.a(libc2.o)
 .text.libc.wcslen
                0x00000000       0x20 C:/Program Files/Rowley Associates Limited/CrossWorks for ARM 2.3/lib/libc_v7em_t_le_eabi.a(libc2.o)
 .text.libc.wcsdup
                0x00000000       0x24 C:/Program Files/Rowley Associates Limited/CrossWorks for ARM 2.3/lib/libc_v7em_t_le_eabi.a(libc2.o)
 .text.libc.wcsncat
                0x00000000       0x3c C:/Program Files/Rowley Associates Limited/CrossWorks for ARM 2.3/lib/libc_v7em_t_le_eabi.a(libc2.o)
 .text.libc.wcsnchr
                0x00000000       0x2c C:/Program Files/Rowley Associates Limited/CrossWorks for ARM 2.3/lib/libc_v7em_t_le_eabi.a(libc2.o)
 .text.libc.wcsncmp
                0x00000000       0x44 C:/Program Files/Rowley Associates Limited/CrossWorks for ARM 2.3/lib/libc_v7em_t_le_eabi.a(libc2.o)
 .text.libc.wcsncpy
                0x00000000       0x3c C:/Program Files/Rowley Associates Limited/CrossWorks for ARM 2.3/lib/libc_v7em_t_le_eabi.a(libc2.o)
 .text.libc.wcsnlen
                0x00000000       0x2c C:/Program Files/Rowley Associates Limited/CrossWorks for ARM 2.3/lib/libc_v7em_t_le_eabi.a(libc2.o)
 .text.libc.wcsnstr
                0x00000000       0x60 C:/Program Files/Rowley Associates Limited/CrossWorks for ARM 2.3/lib/libc_v7em_t_le_eabi.a(libc2.o)
 .text.libc.wcspbrk
                0x00000000       0x38 C:/Program Files/Rowley Associates Limited/CrossWorks for ARM 2.3/lib/libc_v7em_t_le_eabi.a(libc2.o)
 .text.libc.wcsrchr
                0x00000000       0x34 C:/Program Files/Rowley Associates Limited/CrossWorks for ARM 2.3/lib/libc_v7em_t_le_eabi.a(libc2.o)
 .text.libc.wcssep
                0x00000000       0x58 C:/Program Files/Rowley Associates Limited/CrossWorks for ARM 2.3/lib/libc_v7em_t_le_eabi.a(libc2.o)
 .text.libc.wcsspn
                0x00000000       0x30 C:/Program Files/Rowley Associates Limited/CrossWorks for ARM 2.3/lib/libc_v7em_t_le_eabi.a(libc2.o)
 .text.libc.wcsstr
                0x00000000       0x50 C:/Program Files/Rowley Associates Limited/CrossWorks for ARM 2.3/lib/libc_v7em_t_le_eabi.a(libc2.o)
 .text.libc.wcstok
                0x00000000       0x98 C:/Program Files/Rowley Associates Limited/CrossWorks for ARM 2.3/lib/libc_v7em_t_le_eabi.a(libc2.o)
 .text.libc.wcstok_r
                0x00000000       0x84 C:/Program Files/Rowley Associates Limited/CrossWorks for ARM 2.3/lib/libc_v7em_t_le_eabi.a(libc2.o)
 .text.libc.wmemcpy
                0x00000000       0x18 C:/Program Files/Rowley Associates Limited/CrossWorks for ARM 2.3/lib/libc_v7em_t_le_eabi.a(libc2.o)
 .text.libc.wmemccpy
                0x00000000       0x34 C:/Program Files/Rowley Associates Limited/CrossWorks for ARM 2.3/lib/libc_v7em_t_le_eabi.a(libc2.o)
 .text.libc.wmempcpy
                0x00000000       0x10 C:/Program Files/Rowley Associates Limited/CrossWorks for ARM 2.3/lib/libc_v7em_t_le_eabi.a(libc2.o)
 .text.libc.wmemmove
                0x00000000       0x38 C:/Program Files/Rowley Associates Limited/CrossWorks for ARM 2.3/lib/libc_v7em_t_le_eabi.a(libc2.o)
 .text.libc.wmemcmp
                0x00000000       0x40 C:/Program Files/Rowley Associates Limited/CrossWorks for ARM 2.3/lib/libc_v7em_t_le_eabi.a(libc2.o)
 .text.libc.wmemchr
                0x00000000       0x2c C:/Program Files/Rowley Associates Limited/CrossWorks for ARM 2.3/lib/libc_v7em_t_le_eabi.a(libc2.o)
 .text.libc.wmemset
                0x00000000       0x10 C:/Program Files/Rowley Associates Limited/CrossWorks for ARM 2.3/lib/libc_v7em_t_le_eabi.a(libc2.o)
 .bss.libc.last.5384
                0x00000000        0x4 C:/Program Files/Rowley Associates Limited/CrossWorks for ARM 2.3/lib/libc_v7em_t_le_eabi.a(libc2.o)
 .bss.libc.last.5854
                0x00000000        0x4 C:/Program Files/Rowley Associates Limited/CrossWorks for ARM 2.3/lib/libc_v7em_t_le_eabi.a(libc2.o)
 .rodata.libc.mon_name
                0x00000000       0x30 C:/Program Files/Rowley Associates Limited/CrossWorks for ARM 2.3/lib/libc_v7em_t_le_eabi.a(libc2.o)
 .bss.libc.__atexitfns
                0x00000000       0x80 C:/Program Files/Rowley Associates Limited/CrossWorks for ARM 2.3/lib/libc_v7em_t_le_eabi.a(libc2.o)
 .rodata.libc.day_name
                0x00000000       0x1c C:/Program Files/Rowley Associates Limited/CrossWorks for ARM 2.3/lib/libc_v7em_t_le_eabi.a(libc2.o)
 .bss.libc.asctime_buf
                0x00000000       0x1c C:/Program Files/Rowley Associates Limited/CrossWorks for ARM 2.3/lib/libc_v7em_t_le_eabi.a(libc2.o)
 .bss.libc.__crt_set_time_of_day
                0x00000000        0x4 C:/Program Files/Rowley Associates Limited/CrossWorks for ARM 2.3/lib/libc_v7em_t_le_eabi.a(libc2.o)
 .bss.libc.atexitfn_count
                0x00000000        0x4 C:/Program Files/Rowley Associates Limited/CrossWorks for ARM 2.3/lib/libc_v7em_t_le_eabi.a(libc2.o)
 .data.libc.__ungot
                0x00000000        0x4 C:/Program Files/Rowley Associates Limited/CrossWorks for ARM 2.3/lib/libc_v7em_t_le_eabi.a(libc2.o)
 .rodata.libc.__ctype
                0x00000000      0x104 C:/Program Files/Rowley Associates Limited/CrossWorks for ARM 2.3/lib/libc_v7em_t_le_eabi.a(libc2.o)
 .text.libc     0x00000000        0x0 C:/Program Files/Rowley Associates Limited/CrossWorks for ARM 2.3/lib/libc_v7em_t_le_eabi.a(libc2_asm.o)
 .data.libc     0x00000000        0x0 C:/Program Files/Rowley Associates Limited/CrossWorks for ARM 2.3/lib/libc_v7em_t_le_eabi.a(libc2_asm.o)
 .bss.libc      0x00000000        0x0 C:/Program Files/Rowley Associates Limited/CrossWorks for ARM 2.3/lib/libc_v7em_t_le_eabi.a(libc2_asm.o)
 .text.libc.memcpy_fast
                0x00000000        0x4 C:/Program Files/Rowley Associates Limited/CrossWorks for ARM 2.3/lib/libc_v7em_t_le_eabi.a(libc2_asm.o)
 .text.libc.memcpy_small
                0x00000000       0x1c C:/Program Files/Rowley Associates Limited/CrossWorks for ARM 2.3/lib/libc_v7em_t_le_eabi.a(libc2_asm.o)
 .text.libc.__aeabi_memset
                0x00000000       0x64 C:/Program Files/Rowley Associates Limited/CrossWorks for ARM 2.3/lib/libc_v7em_t_le_eabi.a(libc2_asm.o)
 .text          0x00000000        0x0 C:/Program Files/Rowley Associates Limited/CrossWorks for ARM 2.3/lib/libc_v7em_t_le_eabi.a(__vfprintf_double_long_long.o)
 .data          0x00000000        0x0 C:/Program Files/Rowley Associates Limited/CrossWorks for ARM 2.3/lib/libc_v7em_t_le_eabi.a(__vfprintf_double_long_long.o)
 .bss           0x00000000        0x0 C:/Program Files/Rowley Associates Limited/CrossWorks for ARM 2.3/lib/libc_v7em_t_le_eabi.a(__vfprintf_double_long_long.o)
 .text.libc     0x00000000        0x0 C:/Program Files/Rowley Associates Limited/CrossWorks for ARM 2.3/lib/libc_v7em_t_le_eabi.a(__vfprintf_double_long_long.o)
 .text          0x00000000        0x0 C:/Program Files/Rowley Associates Limited/CrossWorks for ARM 2.3/lib/libc_v7em_t_le_eabi.a(__vfscanf_double_long_long.o)
 .data          0x00000000        0x0 C:/Program Files/Rowley Associates Limited/CrossWorks for ARM 2.3/lib/libc_v7em_t_le_eabi.a(__vfscanf_double_long_long.o)
 .bss           0x00000000        0x0 C:/Program Files/Rowley Associates Limited/CrossWorks for ARM 2.3/lib/libc_v7em_t_le_eabi.a(__vfscanf_double_long_long.o)
 .text.libc     0x00000000        0x0 C:/Program Files/Rowley Associates Limited/CrossWorks for ARM 2.3/lib/libc_v7em_t_le_eabi.a(__vfscanf_double_long_long.o)
 .text          0x00000000        0x0 C:/Program Files/Rowley Associates Limited/CrossWorks for ARM 2.3/lib/libdebugio_v7em_t_le_eabi.a(libdebugio.o)
 .data          0x00000000        0x0 C:/Program Files/Rowley Associates Limited/CrossWorks for ARM 2.3/lib/libdebugio_v7em_t_le_eabi.a(libdebugio.o)
 .bss           0x00000000        0x0 C:/Program Files/Rowley Associates Limited/CrossWorks for ARM 2.3/lib/libdebugio_v7em_t_le_eabi.a(libdebugio.o)
 .text.libdebugio
                0x00000000        0x0 C:/Program Files/Rowley Associates Limited/CrossWorks for ARM 2.3/lib/libdebugio_v7em_t_le_eabi.a(libdebugio.o)
 .text.libdebugio.__do_nvdebug_operation
                0x00000000       0x18 C:/Program Files/Rowley Associates Limited/CrossWorks for ARM 2.3/lib/libdebugio_v7em_t_le_eabi.a(libdebugio.o)
 .text.libdebugio.debug_abort
                0x00000000       0x10 C:/Program Files/Rowley Associates Limited/CrossWorks for ARM 2.3/lib/libdebugio_v7em_t_le_eabi.a(libdebugio.o)
 .text.libdebugio.debug_fopen
                0x00000000       0x1c C:/Program Files/Rowley Associates Limited/CrossWorks for ARM 2.3/lib/libdebugio_v7em_t_le_eabi.a(libdebugio.o)
 .text.libdebugio.debug_fgets
                0x00000000       0x28 C:/Program Files/Rowley Associates Limited/CrossWorks for ARM 2.3/lib/libdebugio_v7em_t_le_eabi.a(libdebugio.o)
 .text.libdebugio.debug_fputc
                0x00000000       0x14 C:/Program Files/Rowley Associates Limited/CrossWorks for ARM 2.3/lib/libdebugio_v7em_t_le_eabi.a(libdebugio.o)
 .text.libdebugio.debug_fputs
                0x00000000       0x14 C:/Program Files/Rowley Associates Limited/CrossWorks for ARM 2.3/lib/libdebugio_v7em_t_le_eabi.a(libdebugio.o)
 .text.libdebugio.debug_fread
                0x00000000       0x2c C:/Program Files/Rowley Associates Limited/CrossWorks for ARM 2.3/lib/libdebugio_v7em_t_le_eabi.a(libdebugio.o)
 .text.libdebugio.debug_fwrite
                0x00000000       0x20 C:/Program Files/Rowley Associates Limited/CrossWorks for ARM 2.3/lib/libdebugio_v7em_t_le_eabi.a(libdebugio.o)
 .text.libdebugio.debug_fseek
                0x00000000       0x18 C:/Program Files/Rowley Associates Limited/CrossWorks for ARM 2.3/lib/libdebugio_v7em_t_le_eabi.a(libdebugio.o)
 .text.libdebugio.debug_ftell
                0x00000000       0x20 C:/Program Files/Rowley Associates Limited/CrossWorks for ARM 2.3/lib/libdebugio_v7em_t_le_eabi.a(libdebugio.o)
 .text.libdebugio.debug_gets
                0x00000000       0x1c C:/Program Files/Rowley Associates Limited/CrossWorks for ARM 2.3/lib/libdebugio_v7em_t_le_eabi.a(libdebugio.o)
 .text.libdebugio.debug_fflush
                0x00000000       0x10 C:/Program Files/Rowley Associates Limited/CrossWorks for ARM 2.3/lib/libdebugio_v7em_t_le_eabi.a(libdebugio.o)
 .text.libdebugio.debug_fclose
                0x00000000       0x10 C:/Program Files/Rowley Associates Limited/CrossWorks for ARM 2.3/lib/libdebugio_v7em_t_le_eabi.a(libdebugio.o)
 .text.libdebugio.debug_fgetc
                0x00000000       0x18 C:/Program Files/Rowley Associates Limited/CrossWorks for ARM 2.3/lib/libdebugio_v7em_t_le_eabi.a(libdebugio.o)
 .text.libdebugio.debug_getchar
                0x00000000       0x1c C:/Program Files/Rowley Associates Limited/CrossWorks for ARM 2.3/lib/libdebugio_v7em_t_le_eabi.a(libdebugio.o)
 .text.libdebugio.debug_putchar
                0x00000000       0x1c C:/Program Files/Rowley Associates Limited/CrossWorks for ARM 2.3/lib/libdebugio_v7em_t_le_eabi.a(libdebugio.o)
 .text.libdebugio.debug_puts
                0x00000000       0x10 C:/Program Files/Rowley Associates Limited/CrossWorks for ARM 2.3/lib/libdebugio_v7em_t_le_eabi.a(libdebugio.o)
 .text.libdebugio.debug_rewind
                0x00000000       0x10 C:/Program Files/Rowley Associates Limited/CrossWorks for ARM 2.3/lib/libdebugio_v7em_t_le_eabi.a(libdebugio.o)
 .text.libdebugio.debug_clearerr
                0x00000000       0x10 C:/Program Files/Rowley Associates Limited/CrossWorks for ARM 2.3/lib/libdebugio_v7em_t_le_eabi.a(libdebugio.o)
 .text.libdebugio.debug_feof
                0x00000000       0x10 C:/Program Files/Rowley Associates Limited/CrossWorks for ARM 2.3/lib/libdebugio_v7em_t_le_eabi.a(libdebugio.o)
 .text.libdebugio.debug_ferror
                0x00000000       0x10 C:/Program Files/Rowley Associates Limited/CrossWorks for ARM 2.3/lib/libdebugio_v7em_t_le_eabi.a(libdebugio.o)
 .text.libdebugio.debug_getch
                0x00000000       0x1c C:/Program Files/Rowley Associates Limited/CrossWorks for ARM 2.3/lib/libdebugio_v7em_t_le_eabi.a(libdebugio.o)
 .text.libdebugio.debug_time
                0x00000000       0x28 C:/Program Files/Rowley Associates Limited/CrossWorks for ARM 2.3/lib/libdebugio_v7em_t_le_eabi.a(libdebugio.o)
 .text.libdebugio.debug_vprintf
                0x00000000       0x14 C:/Program Files/Rowley Associates Limited/CrossWorks for ARM 2.3/lib/libdebugio_v7em_t_le_eabi.a(libdebugio.o)
 .text.libdebugio.debug_vfprintf
                0x00000000       0x18 C:/Program Files/Rowley Associates Limited/CrossWorks for ARM 2.3/lib/libdebugio_v7em_t_le_eabi.a(libdebugio.o)
 .text.libdebugio.debug_ungetc
                0x00000000       0x14 C:/Program Files/Rowley Associates Limited/CrossWorks for ARM 2.3/lib/libdebugio_v7em_t_le_eabi.a(libdebugio.o)
 .text.libdebugio.debug_fgetpos
                0x00000000       0x14 C:/Program Files/Rowley Associates Limited/CrossWorks for ARM 2.3/lib/libdebugio_v7em_t_le_eabi.a(libdebugio.o)
 .text.libdebugio.debug_fsetpos
                0x00000000       0x14 C:/Program Files/Rowley Associates Limited/CrossWorks for ARM 2.3/lib/libdebugio_v7em_t_le_eabi.a(libdebugio.o)
 .text.libdebugio.debug_freopen
                0x00000000       0x20 C:/Program Files/Rowley Associates Limited/CrossWorks for ARM 2.3/lib/libdebugio_v7em_t_le_eabi.a(libdebugio.o)
 .text.libdebugio.debug_perror
                0x00000000       0x10 C:/Program Files/Rowley Associates Limited/CrossWorks for ARM 2.3/lib/libdebugio_v7em_t_le_eabi.a(libdebugio.o)
 .text.libdebugio.debug_remove
                0x00000000       0x10 C:/Program Files/Rowley Associates Limited/CrossWorks for ARM 2.3/lib/libdebugio_v7em_t_le_eabi.a(libdebugio.o)
 .text.libdebugio.debug_rename
                0x00000000       0x14 C:/Program Files/Rowley Associates Limited/CrossWorks for ARM 2.3/lib/libdebugio_v7em_t_le_eabi.a(libdebugio.o)
 .text.libdebugio.debug_tmpfile
                0x00000000       0x14 C:/Program Files/Rowley Associates Limited/CrossWorks for ARM 2.3/lib/libdebugio_v7em_t_le_eabi.a(libdebugio.o)
 .text.libdebugio.debug_tmpnam
                0x00000000       0x28 C:/Program Files/Rowley Associates Limited/CrossWorks for ARM 2.3/lib/libdebugio_v7em_t_le_eabi.a(libdebugio.o)
 .text.libdebugio.debug_getenv
                0x00000000       0x2c C:/Program Files/Rowley Associates Limited/CrossWorks for ARM 2.3/lib/libdebugio_v7em_t_le_eabi.a(libdebugio.o)
 .text.libdebugio.debug_system
                0x00000000       0x10 C:/Program Files/Rowley Associates Limited/CrossWorks for ARM 2.3/lib/libdebugio_v7em_t_le_eabi.a(libdebugio.o)
 .text.libdebugio.debug_vfscanf
                0x00000000       0x18 C:/Program Files/Rowley Associates Limited/CrossWorks for ARM 2.3/lib/libdebugio_v7em_t_le_eabi.a(libdebugio.o)
 .text.libdebugio.debug_vscanf
                0x00000000       0x1c C:/Program Files/Rowley Associates Limited/CrossWorks for ARM 2.3/lib/libdebugio_v7em_t_le_eabi.a(libdebugio.o)
 .text.libdebugio.debug_exit
                0x00000000       0x10 C:/Program Files/Rowley Associates Limited/CrossWorks for ARM 2.3/lib/libdebugio_v7em_t_le_eabi.a(libdebugio.o)
 .text.libdebugio.debug_enabled
                0x00000000        0xc C:/Program Files/Rowley Associates Limited/CrossWorks for ARM 2.3/lib/libdebugio_v7em_t_le_eabi.a(libdebugio.o)
 .text.libdebugio.debug_kbhit
                0x00000000       0x10 C:/Program Files/Rowley Associates Limited/CrossWorks for ARM 2.3/lib/libdebugio_v7em_t_le_eabi.a(libdebugio.o)
 .text.libdebugio.debug_ioctl
                0x00000000       0x14 C:/Program Files/Rowley Associates Limited/CrossWorks for ARM 2.3/lib/libdebugio_v7em_t_le_eabi.a(libdebugio.o)
 .text.libdebugio.debug_runtime_error
                0x00000000       0x10 C:/Program Files/Rowley Associates Limited/CrossWorks for ARM 2.3/lib/libdebugio_v7em_t_le_eabi.a(libdebugio.o)
 .text.libdebugio.debug_break
                0x00000000       0x10 C:/Program Files/Rowley Associates Limited/CrossWorks for ARM 2.3/lib/libdebugio_v7em_t_le_eabi.a(libdebugio.o)
 .text.libdebugio.debug_getargs
                0x00000000       0x10 C:/Program Files/Rowley Associates Limited/CrossWorks for ARM 2.3/lib/libdebugio_v7em_t_le_eabi.a(libdebugio.o)
 .text.libdebugio.debug_geti
                0x00000000       0x18 C:/Program Files/Rowley Associates Limited/CrossWorks for ARM 2.3/lib/libdebugio_v7em_t_le_eabi.a(libdebugio.o)
 .text.libdebugio.debug_getu
                0x00000000       0x18 C:/Program Files/Rowley Associates Limited/CrossWorks for ARM 2.3/lib/libdebugio_v7em_t_le_eabi.a(libdebugio.o)
 .text.libdebugio.debug_getl
                0x00000000       0x18 C:/Program Files/Rowley Associates Limited/CrossWorks for ARM 2.3/lib/libdebugio_v7em_t_le_eabi.a(libdebugio.o)
 .text.libdebugio.debug_getul
                0x00000000       0x18 C:/Program Files/Rowley Associates Limited/CrossWorks for ARM 2.3/lib/libdebugio_v7em_t_le_eabi.a(libdebugio.o)
 .text.libdebugio.debug_getf
                0x00000000       0x18 C:/Program Files/Rowley Associates Limited/CrossWorks for ARM 2.3/lib/libdebugio_v7em_t_le_eabi.a(libdebugio.o)
 .text.libdebugio.debug_getd
                0x00000000       0x18 C:/Program Files/Rowley Associates Limited/CrossWorks for ARM 2.3/lib/libdebugio_v7em_t_le_eabi.a(libdebugio.o)
 .text.libdebugio.debug_getll
                0x00000000       0x18 C:/Program Files/Rowley Associates Limited/CrossWorks for ARM 2.3/lib/libdebugio_v7em_t_le_eabi.a(libdebugio.o)
 .text.libdebugio.debug_getull
                0x00000000       0x18 C:/Program Files/Rowley Associates Limited/CrossWorks for ARM 2.3/lib/libdebugio_v7em_t_le_eabi.a(libdebugio.o)
 .text.libdebugio.debug_filesize
                0x00000000       0x10 C:/Program Files/Rowley Associates Limited/CrossWorks for ARM 2.3/lib/libdebugio_v7em_t_le_eabi.a(libdebugio.o)
 .text.libdebugio.debug_accept
                0x00000000       0x30 C:/Program Files/Rowley Associates Limited/CrossWorks for ARM 2.3/lib/libdebugio_v7em_t_le_eabi.a(libdebugio.o)
 .text.libdebugio.debug_bind
                0x00000000       0x2c C:/Program Files/Rowley Associates Limited/CrossWorks for ARM 2.3/lib/libdebugio_v7em_t_le_eabi.a(libdebugio.o)
 .text.libdebugio.debug_listen
                0x00000000       0x14 C:/Program Files/Rowley Associates Limited/CrossWorks for ARM 2.3/lib/libdebugio_v7em_t_le_eabi.a(libdebugio.o)
 .text.libdebugio.debug_shutdown
                0x00000000       0x14 C:/Program Files/Rowley Associates Limited/CrossWorks for ARM 2.3/lib/libdebugio_v7em_t_le_eabi.a(libdebugio.o)
 .text.libdebugio.debug_socket
                0x00000000       0x18 C:/Program Files/Rowley Associates Limited/CrossWorks for ARM 2.3/lib/libdebugio_v7em_t_le_eabi.a(libdebugio.o)
 .text.libdebugio.debug_htons
                0x00000000        0xc C:/Program Files/Rowley Associates Limited/CrossWorks for ARM 2.3/lib/libdebugio_v7em_t_le_eabi.a(libdebugio.o)
 .text.libdebugio.debug_htonl
                0x00000000       0x1c C:/Program Files/Rowley Associates Limited/CrossWorks for ARM 2.3/lib/libdebugio_v7em_t_le_eabi.a(libdebugio.o)
 .text.libdebugio.debug_loadsymbols
                0x00000000       0x18 C:/Program Files/Rowley Associates Limited/CrossWorks for ARM 2.3/lib/libdebugio_v7em_t_le_eabi.a(libdebugio.o)
 .text.libdebugio.debug_unloadsymbols
                0x00000000       0x10 C:/Program Files/Rowley Associates Limited/CrossWorks for ARM 2.3/lib/libdebugio_v7em_t_le_eabi.a(libdebugio.o)
 .bss.libdebugio.getenv_buffer
                0x00000000      0x400 C:/Program Files/Rowley Associates Limited/CrossWorks for ARM 2.3/lib/libdebugio_v7em_t_le_eabi.a(libdebugio.o)
 .bss.libdebugio.__dbgEnabled
                0x00000000        0x4 C:/Program Files/Rowley Associates Limited/CrossWorks for ARM 2.3/lib/libdebugio_v7em_t_le_eabi.a(libdebugio.o)
 .bss.libdebugio.tmpnam_buffer
                0x00000000      0x100 C:/Program Files/Rowley Associates Limited/CrossWorks for ARM 2.3/lib/libdebugio_v7em_t_le_eabi.a(libdebugio.o)
 .text.libdebugio
                0x00000000        0x0 C:/Program Files/Rowley Associates Limited/CrossWorks for ARM 2.3/lib/libdebugio_v7em_t_le_eabi.a(libdebugio_asm.o)
 .data.libdebugio
                0x00000000        0x0 C:/Program Files/Rowley Associates Limited/CrossWorks for ARM 2.3/lib/libdebugio_v7em_t_le_eabi.a(libdebugio_asm.o)
 .bss.libdebugio
                0x00000000        0x0 C:/Program Files/Rowley Associates Limited/CrossWorks for ARM 2.3/lib/libdebugio_v7em_t_le_eabi.a(libdebugio_asm.o)
 .text.libdebugio_bkpt.__do_debug_operation_bkpt
                0x00000000       0x1c C:/Program Files/Rowley Associates Limited/CrossWorks for ARM 2.3/lib/libdebugio_v7em_t_le_eabi.a(libdebugio_asm.o)
 .text.libc.debug_fprintf
                0x00000000       0x14 C:/Program Files/Rowley Associates Limited/CrossWorks for ARM 2.3/lib/libdebugio_v7em_t_le_eabi.a(libdebugio_asm.o)
 .text.libc.debug_scanf
                0x00000000       0x24 C:/Program Files/Rowley Associates Limited/CrossWorks for ARM 2.3/lib/libdebugio_v7em_t_le_eabi.a(libdebugio_asm.o)
 .text.libc.debug_fscanf
                0x00000000       0x24 C:/Program Files/Rowley Associates Limited/CrossWorks for ARM 2.3/lib/libdebugio_v7em_t_le_eabi.a(libdebugio_asm.o)
 .text          0x00000000        0x0 C:/Program Files/Rowley Associates Limited/CrossWorks for ARM 2.3/lib/libc_targetio_impl_v7em_t_le_eabi.a(libc_targetio_impl.o)
 .data          0x00000000        0x0 C:/Program Files/Rowley Associates Limited/CrossWorks for ARM 2.3/lib/libc_targetio_impl_v7em_t_le_eabi.a(libc_targetio_impl.o)
 .bss           0x00000000        0x0 C:/Program Files/Rowley Associates Limited/CrossWorks for ARM 2.3/lib/libc_targetio_impl_v7em_t_le_eabi.a(libc_targetio_impl.o)
 .text.libc     0x00000000        0x0 C:/Program Files/Rowley Associates Limited/CrossWorks for ARM 2.3/lib/libc_targetio_impl_v7em_t_le_eabi.a(libc_targetio_impl.o)
 .text.libc.getchar
                0x00000000       0x28 C:/Program Files/Rowley Associates Limited/CrossWorks for ARM 2.3/lib/libc_targetio_impl_v7em_t_le_eabi.a(libc_targetio_impl.o)
 .text.libc.putchar
                0x00000000       0x1c C:/Program Files/Rowley Associates Limited/CrossWorks for ARM 2.3/lib/libc_targetio_impl_v7em_t_le_eabi.a(libc_targetio_impl.o)
 .text.libc.gets
                0x00000000       0x34 C:/Program Files/Rowley Associates Limited/CrossWorks for ARM 2.3/lib/libc_targetio_impl_v7em_t_le_eabi.a(libc_targetio_impl.o)
 .text.libc.scanf
                0x00000000       0x4c C:/Program Files/Rowley Associates Limited/CrossWorks for ARM 2.3/lib/libc_targetio_impl_v7em_t_le_eabi.a(libc_targetio_impl.o)
 .text.libc.vprintf
                0x00000000       0x38 C:/Program Files/Rowley Associates Limited/CrossWorks for ARM 2.3/lib/libc_targetio_impl_v7em_t_le_eabi.a(libc_targetio_impl.o)
 .text.libc.vscanf
                0x00000000       0x30 C:/Program Files/Rowley Associates Limited/CrossWorks for ARM 2.3/lib/libc_targetio_impl_v7em_t_le_eabi.a(libc_targetio_impl.o)
 .text          0x00000000        0x0 C:/Program Files/Rowley Associates Limited/CrossWorks for ARM 2.3/lib/libc_user_libc_v7em_t_le_eabi.a(user_libc.o)
 .data          0x00000000        0x0 C:/Program Files/Rowley Associates Limited/CrossWorks for ARM 2.3/lib/libc_user_libc_v7em_t_le_eabi.a(user_libc.o)
 .bss           0x00000000        0x0 C:/Program Files/Rowley Associates Limited/CrossWorks for ARM 2.3/lib/libc_user_libc_v7em_t_le_eabi.a(user_libc.o)
 .text.libc     0x00000000        0x0 C:/Program Files/Rowley Associates Limited/CrossWorks for ARM 2.3/lib/libc_user_libc_v7em_t_le_eabi.a(user_libc.o)
 .text.libc.__scanf_lock
                0x00000000        0x4 C:/Program Files/Rowley Associates Limited/CrossWorks for ARM 2.3/lib/libc_user_libc_v7em_t_le_eabi.a(user_libc.o)
 .text.libc.__scanf_unlock
                0x00000000        0x4 C:/Program Files/Rowley Associates Limited/CrossWorks for ARM 2.3/lib/libc_user_libc_v7em_t_le_eabi.a(user_libc.o)

Memory Configuration

Name             Origin             Length             Attributes
UNPLACED_SECTIONS 0xffffffff         0x00000000         xw
CM3_System_Control_Space 0xe000e000         0x00001000         xw
SMCCS3           0x63000000         0x00000000         xw
SMCCS2           0x62000000         0x00000000         xw
SMCCS1           0x61000000         0x00000000         xw
SMCCS0           0x60000000         0x00000000         xw
Peripherals      0x40000000         0x20000000         xw
RAM              0x20000000         0x00028000         xw
FLASH            0x00400000         0x00100000         xr
*default*        0x00000000         0xffffffff

Linker script and memory map

                0x00444538                __do_debug_operation = __do_debug_operation_mempoll
                0x00442c10                __vfprintf = __vfprintf_double_long_long
                0x00443e40                __vfscanf = __vfscanf_double_long_long
                0xe000e000                __CM3_System_Control_Space_segment_start__ = 0xe000e000
                0xe000f000                __CM3_System_Control_Space_segment_end__ = 0xe000f000
                0x63000000                __SMCCS3_segment_start__ = 0x63000000
                0x63000000                __SMCCS3_segment_end__ = 0x63000000
                0x62000000                __SMCCS2_segment_start__ = 0x62000000
                0x62000000                __SMCCS2_segment_end__ = 0x62000000
                0x61000000                __SMCCS1_segment_start__ = 0x61000000
                0x61000000                __SMCCS1_segment_end__ = 0x61000000
                0x60000000                __SMCCS0_segment_start__ = 0x60000000
                0x60000000                __SMCCS0_segment_end__ = 0x60000000
                0x40000000                __Peripherals_segment_start__ = 0x40000000
                0x60000000                __Peripherals_segment_end__ = 0x60000000
                0x20000000                __RAM_segment_start__ = 0x20000000
                0x20028000                __RAM_segment_end__ = 0x20028000
                0x00400000                __FLASH_segment_start__ = 0x400000
                0x00500000                __FLASH_segment_end__ = 0x500000
                0x000088b8                __STACKSIZE__ = 0x88b8
                0x00000000                __STACKSIZE_PROCESS__ = 0x0
                0x00000000                __STACKSIZE_IRQ__ = 0x0
                0x00000000                __STACKSIZE_FIQ__ = 0x0
                0x00000000                __STACKSIZE_SVC__ = 0x0
                0x00000000                __STACKSIZE_ABT__ = 0x0
                0x00000000                __STACKSIZE_UND__ = 0x0
                0x0001d4c0                __HEAPSIZE__ = 0x1d4c0
                0x20000000                __vectors_ram_load_start__ = ALIGN (__RAM_segment_start__, 0x100)

.vectors_ram    0x20000000        0x0
                0x20000000                __vectors_ram_start__ = .
 *(.vectors_ram .vectors_ram.*)
                0x20000000                __vectors_ram_end__ = (__vectors_ram_start__ + SIZEOF (.vectors_ram))
                0x20000000                __vectors_ram_load_end__ = __vectors_ram_end__
                0x00000001                . = ASSERT (((__vectors_ram_end__ >= __RAM_segment_start__) && (__vectors_ram_end__ <= __RAM_segment_end__)), error: .vectors_ram is too large to fit in RAM memory segment)
                0x00400000                __vectors_load_start__ = ALIGN (__FLASH_segment_start__, 0x100)

.vectors        0x00400000       0xcc
                0x00400000                __vectors_start__ = .
 *(.vectors .vectors.*)
 .vectors       0x00400000       0xcc THUMB Flash Debug 160k/SAM_Startup.o
                0x00400000                _vectors
                0x004000cc                __vectors_end__ = (__vectors_start__ + SIZEOF (.vectors))
                0x004000cc                __vectors_load_end__ = __vectors_end__
                0x00000001                . = ASSERT (((__vectors_end__ >= __FLASH_segment_start__) && (__vectors_end__ <= __FLASH_segment_end__)), error: .vectors is too large to fit in FLASH memory segment)
                0x004000cc                __init_load_start__ = ALIGN (__vectors_end__, 0x4)

.init           0x004000cc      0x1c4
                0x004000cc                __init_start__ = .
 *(.init .init.*)
 .init          0x004000cc      0x140 THUMB Flash Debug 160k/thumb_crt0.o
                0x004000cc                _start
                0x00400172                exit
                0x00400196                __getchar
 .init          0x0040020c       0x84 THUMB Flash Debug 160k/SAM_Startup.o
                0x0040020c                reset_handler
                0x00400224                NMI_Handler
                0x00400228                MemManage_Handler
                0x0040022a                BusFault_Handler
                0x0040022c                UsageFault_Handler
                0x0040022e                SVC_Handler
                0x00400230                DebugMon_Handler
                0x00400232                PendSV_Handler
                0x00400236                SUPC_Handler
                0x00400238                RSTC_Handler
                0x0040023a                RTC_Handler
                0x0040023c                RTT_Handler
                0x0040023e                WDT_Handler
                0x00400240                PMC_Handler
                0x00400242                EFC_Handler
                0x00400248                SMC_Handler
                0x0040024e                PIOC_Handler
                0x00400250                USART0_Handler
                0x00400254                HSMCI_Handler
                0x00400256                TWI0_Handler
                0x00400258                TWI1_Handler
                0x0040025a                SPI_Handler
                0x0040025c                SSC_Handler
                0x00400260                TC1_Handler
                0x00400262                TC2_Handler
                0x00400264                TC3_Handler
                0x00400266                TC4_Handler
                0x00400268                TC5_Handler
                0x0040026a                ADC_Handler
                0x0040026c                DACC_Handler
                0x0040026e                PWM_Handler
                0x00400270                CRCCU_Handler
                0x00400272                ACC_Handler
                0x00400274                UDP_Handler
                0x00400276                reset_wait
                0x00400290                __init_end__ = (__init_start__ + SIZEOF (.init))
                0x00400290                __init_load_end__ = __init_end__
                0x00000001                . = ASSERT (((__init_end__ >= __FLASH_segment_start__) && (__init_end__ <= __FLASH_segment_end__)), error: .init is too large to fit in FLASH memory segment)
                0x00400290                __text_load_start__ = ALIGN (__init_end__, 0x4)

.text           0x00400290    0x443cc
                0x00400290                __text_start__ = .
 *(.text .text.* .glue_7t .glue_7 .gnu.linkonce.t.* .gcc_except_table .ARM.extab* .gnu.linkonce.armextab.*)
 .glue_7        0x00000000        0x0 linker stubs
 .glue_7t       0x00000000        0x0 linker stubs
 .text.__assert
                0x00400290       0x24 THUMB Flash Debug 160k/main.o
                0x00400290                __assert
 .text.ff_memalloc
                0x004002b4       0x2c THUMB Flash Debug 160k/main.o
                0x004002b4                ff_memalloc
 .text.ff_memfree
                0x004002e0       0x28 THUMB Flash Debug 160k/main.o
                0x004002e0                ff_memfree
 .text.FileExits
                0x00400308       0x3c THUMB Flash Debug 160k/main.o
                0x00400308                FileExits
 .text.LuaLibLevelSys_Register
                0x00400344       0x58 THUMB Flash Debug 160k/main.o
                0x00400344                LuaLibLevelSys_Register
 .text.main     0x0040039c      0x6fc THUMB Flash Debug 160k/main.o
                0x0040039c                main
 .text.DriveInformationTitle.6614
                0x00400a98       0x2c THUMB Flash Debug 160k/main.o
 .text.DriveInformationRow.6622
                0x00400ac4       0x64 THUMB Flash Debug 160k/main.o
 .text.HAL_ErrorToString
                0x00400b28      0x108 THUMB Flash Debug 160k/HAL.o
                0x00400b28                HAL_ErrorToString
 .text.ResourceIdToIndex
                0x00400c30       0x50 THUMB Flash Debug 160k/HAL.o
 .text.ResourceLock2
                0x00400c80       0xac THUMB Flash Debug 160k/HAL.o
 .text.ResourceLock1
                0x00400d2c       0x30 THUMB Flash Debug 160k/HAL.o
 .text.ResourceUnlock
                0x00400d5c       0x54 THUMB Flash Debug 160k/HAL.o
                0x00400d5c                ResourceUnlock
 .text.LEDAndDET
                0x00400db0       0x7c THUMB Flash Debug 160k/HAL.o
 .text.HAL_SysFatal
                0x00400e2c      0x220 THUMB Flash Debug 160k/HAL.o
                0x00400e2c                HAL_SysFatal
 .text.HAL_GetAreaUsage
                0x0040104c       0x74 THUMB Flash Debug 160k/HAL.o
 .text.HAL_GetStackUsage
                0x004010c0       0x20 THUMB Flash Debug 160k/HAL.o
                0x004010c0                HAL_GetStackUsage
 .text.____assert
                0x004010e0       0x30 THUMB Flash Debug 160k/HAL.o
                0x004010e0                ____assert
 .text.abort    0x00401110       0x10 THUMB Flash Debug 160k/HAL.o
                0x00401110                abort
 .text.HardFaultHandler2
                0x00401120      0x20c THUMB Flash Debug 160k/HAL.o
 .text.HardFault_Handler
                0x0040132c       0x1c THUMB Flash Debug 160k/HAL.o
                0x0040132c                HardFault_Handler
 .text.HAL_Reboot
                0x00401348       0x18 THUMB Flash Debug 160k/HAL.o
                0x00401348                HAL_Reboot
 .text.HAL_WatchdogInit
                0x00401360       0xd8 THUMB Flash Debug 160k/HAL.o
                0x00401360                HAL_WatchdogInit
 .text.HAL_WatchdogServe
                0x00401438       0x4c THUMB Flash Debug 160k/HAL.o
                0x00401438                HAL_WatchdogServe
 .text.HAL_TickIsTicked
                0x00401484       0x54 THUMB Flash Debug 160k/HAL.o
                0x00401484                HAL_TickIsTicked
 .text.HAL_TickGetElapsedTime
                0x004014d8       0x68 THUMB Flash Debug 160k/HAL.o
                0x004014d8                HAL_TickGetElapsedTime
 .text.HAL_SysLED
                0x00401540       0x30 THUMB Flash Debug 160k/HAL.o
                0x00401540                HAL_SysLED
 .text.IAP      0x00401570       0x38 THUMB Flash Debug 160k/HAL.o
                0x00401570                IAP
 .text.HAL_DelayMS
                0x004015a8       0x30 THUMB Flash Debug 160k/HAL.o
                0x004015a8                HAL_DelayMS
 .text.HAL_DelayUS
                0x004015d8       0x74 THUMB Flash Debug 160k/HAL.o
                0x004015d8                HAL_DelayUS
 .text.HAL_GetSDCardState
                0x0040164c       0x44 THUMB Flash Debug 160k/HAL.o
                0x0040164c                HAL_GetSDCardState
 .text.HAL_SysTickInit
                0x00401690       0x9c THUMB Flash Debug 160k/HAL.o
 .text.SysTick_Handler
                0x0040172c      0x308 THUMB Flash Debug 160k/HAL.o
                0x0040172c                SysTick_Handler
 .text.HAL_SysLEDInit
                0x00401a34       0x1c THUMB Flash Debug 160k/HAL.o
 .text.HAL_SPIEthInit
                0x00401a50       0xb0 THUMB Flash Debug 160k/HAL.o
 .text.HAL_SPIEthWriteRead
                0x00401b00       0x74 THUMB Flash Debug 160k/HAL.o
                0x00401b00                HAL_SPIEthWriteRead
 .text.HAL_EthInit
                0x00401b74       0x48 THUMB Flash Debug 160k/HAL.o
                0x00401b74                HAL_EthInit
 .text.HAL_EthReset
                0x00401bbc       0x7c THUMB Flash Debug 160k/HAL.o
                0x00401bbc                HAL_EthReset
 .text.HAL_EthCS0
                0x00401c38       0x18 THUMB Flash Debug 160k/HAL.o
                0x00401c38                HAL_EthCS0
 .text.HAL_EthCS1
                0x00401c50       0x18 THUMB Flash Debug 160k/HAL.o
                0x00401c50                HAL_EthCS1
 .text.HAL_ATSHA204Init
                0x00401c68       0xd0 THUMB Flash Debug 160k/HAL.o
 .text.HAL_SHA204Send
                0x00401d38       0xdc THUMB Flash Debug 160k/HAL.o
                0x00401d38                HAL_SHA204Send
 .text.HAL_SHA204Recv
                0x00401e14      0x138 THUMB Flash Debug 160k/HAL.o
                0x00401e14                HAL_SHA204Recv
 .text.HAL_SHA204SignalPin
                0x00401f4c       0x5c THUMB Flash Debug 160k/HAL.o
                0x00401f4c                HAL_SHA204SignalPin
 .text.clock    0x00401fa8       0x20 THUMB Flash Debug 160k/HAL.o
                0x00401fa8                clock
 .text.__putchar
                0x00401fc8       0x8c THUMB Flash Debug 160k/HAL.o
                0x00401fc8                __putchar
 .text.HAL_GetPinPio
                0x00402054       0x34 THUMB Flash Debug 160k/HAL.o
                0x00402054                HAL_GetPinPio
 .text.HAL_GetPinMask
                0x00402088       0x24 THUMB Flash Debug 160k/HAL.o
                0x00402088                HAL_GetPinMask
 .text.HAL_PinGetNames
                0x004020ac       0x14 THUMB Flash Debug 160k/HAL.o
                0x004020ac                HAL_PinGetNames
 .text.HAL_PinNameToId
                0x004020c0       0x9c THUMB Flash Debug 160k/HAL.o
                0x004020c0                HAL_PinNameToId
 .text.Match.6033
                0x0040215c       0x48 THUMB Flash Debug 160k/HAL.o
 .text.HAL_PinConfig
                0x004021a4      0x1a4 THUMB Flash Debug 160k/HAL.o
                0x004021a4                HAL_PinConfig
 .text.HAL_PinSet
                0x00402348       0x48 THUMB Flash Debug 160k/HAL.o
                0x00402348                HAL_PinSet
 .text.HAL_PinGet
                0x00402390       0x44 THUMB Flash Debug 160k/HAL.o
                0x00402390                HAL_PinGet
 .text.HAL_SerialInit
                0x004023d4       0x90 THUMB Flash Debug 160k/HAL.o
                0x004023d4                HAL_SerialInit
 .text.OpenUSART.6061
                0x00402464       0x88 THUMB Flash Debug 160k/HAL.o
 .text.HAL_SerialOpen
                0x004024ec      0x184 THUMB Flash Debug 160k/HAL.o
                0x004024ec                HAL_SerialOpen
 .text.OpenUART.6064
                0x00402670       0x60 THUMB Flash Debug 160k/HAL.o
 .text.HAL_SerialClose
                0x004026d0       0x90 THUMB Flash Debug 160k/HAL.o
                0x004026d0                HAL_SerialClose
 .text.Match.6090
                0x00402760       0x48 THUMB Flash Debug 160k/HAL.o
 .text.HAL_SerialConfig
                0x004027a8       0x9c THUMB Flash Debug 160k/HAL.o
                0x004027a8                HAL_SerialConfig
 .text.Config.6094
                0x00402844      0x220 THUMB Flash Debug 160k/HAL.o
 .text.Send.6114
                0x00402a64       0xc4 THUMB Flash Debug 160k/HAL.o
 .text.HAL_SerialSend
                0x00402b28      0x13c THUMB Flash Debug 160k/HAL.o
                0x00402b28                HAL_SerialSend
 .text.HAL_SerialRecv
                0x00402c64      0x110 THUMB Flash Debug 160k/HAL.o
                0x00402c64                HAL_SerialRecv
 .text.SerialPushRecv
                0x00402d74       0x44 THUMB Flash Debug 160k/HAL.o
 .text.USART1_Handler
                0x00402db8      0x118 THUMB Flash Debug 160k/HAL.o
                0x00402db8                USART1_Handler
 .text.UART0_Handler
                0x00402ed0       0x54 THUMB Flash Debug 160k/HAL.o
                0x00402ed0                UART0_Handler
 .text.UART1_Handler
                0x00402f24       0x54 THUMB Flash Debug 160k/HAL.o
                0x00402f24                UART1_Handler
 .text.I2CCalcBaudrate
                0x00402f78       0x94 THUMB Flash Debug 160k/HAL.o
 .text.I2CReset
                0x0040300c       0x54 THUMB Flash Debug 160k/HAL.o
 .text.HAL_I2COpen
                0x00403060       0xbc THUMB Flash Debug 160k/HAL.o
                0x00403060                HAL_I2COpen
 .text.HAL_I2CClose
                0x0040311c       0x30 THUMB Flash Debug 160k/HAL.o
                0x0040311c                HAL_I2CClose
 *fill*         0x0040314c        0x4 00
 .text.HAL_I2CConfig
                0x00403150       0xe8 THUMB Flash Debug 160k/HAL.o
                0x00403150                HAL_I2CConfig
 .text.HAL_I2CExist
                0x00403238      0x104 THUMB Flash Debug 160k/HAL.o
                0x00403238                HAL_I2CExist
 .text.HAL_I2CSend
                0x0040333c      0x180 THUMB Flash Debug 160k/HAL.o
                0x0040333c                HAL_I2CSend
 .text.HAL_I2CRecv
                0x004034bc      0x19c THUMB Flash Debug 160k/HAL.o
                0x004034bc                HAL_I2CRecv
 .text.HAL_EVEOpen
                0x00403658      0x160 THUMB Flash Debug 160k/HAL.o
                0x00403658                HAL_EVEOpen
 .text.HAL_EVEClose
                0x004037b8       0x1c THUMB Flash Debug 160k/HAL.o
                0x004037b8                HAL_EVEClose
 .text.HAL_EVESetSpeed
                0x004037d4       0x5c THUMB Flash Debug 160k/HAL.o
                0x004037d4                HAL_EVESetSpeed
 .text.HAL_EVETransferBegin
                0x00403830       0x2c THUMB Flash Debug 160k/HAL.o
                0x00403830                HAL_EVETransferBegin
 .text.HAL_EVETransfer
                0x0040385c       0x58 THUMB Flash Debug 160k/HAL.o
                0x0040385c                HAL_EVETransfer
 .text.HAL_EVETransferEnd
                0x004038b4       0x18 THUMB Flash Debug 160k/HAL.o
                0x004038b4                HAL_EVETransferEnd
 *fill*         0x004038cc        0x4 00
 .text.HAL_SoftPWMInit
                0x004038d0      0x1b8 THUMB Flash Debug 160k/HAL.o
                0x004038d0                HAL_SoftPWMInit
 .text.HAL_SoftPWMDeinit
                0x00403a88       0x28 THUMB Flash Debug 160k/HAL.o
                0x00403a88                HAL_SoftPWMDeinit
 .text.HAL_SoftPWMConfig
                0x00403ab0       0x90 THUMB Flash Debug 160k/HAL.o
                0x00403ab0                HAL_SoftPWMConfig
 .text.HAL_SoftPWMSet
                0x00403b40       0x84 THUMB Flash Debug 160k/HAL.o
                0x00403b40                HAL_SoftPWMSet
 .text.TC0_Handler
                0x00403bc4       0xbc THUMB Flash Debug 160k/HAL.o
                0x00403bc4                TC0_Handler
 .text.SoftCountFind
                0x00403c80       0x60 THUMB Flash Debug 160k/HAL.o
 .text.SoftCountFindFree
                0x00403ce0       0x58 THUMB Flash Debug 160k/HAL.o
 .text.HAL_SoftCounterInit
                0x00403d38       0x2c THUMB Flash Debug 160k/HAL.o
                0x00403d38                HAL_SoftCounterInit
 .text.HAL_SoftCounterDeinit
                0x00403d64       0x7c THUMB Flash Debug 160k/HAL.o
                0x00403d64                HAL_SoftCounterDeinit
 .text.Match.6381
                0x00403de0       0x48 THUMB Flash Debug 160k/HAL.o
 .text.HAL_SoftCounterConfig
                0x00403e28      0x130 THUMB Flash Debug 160k/HAL.o
                0x00403e28                HAL_SoftCounterConfig
 .text.HAL_SoftCounterGet
                0x00403f58       0x5c THUMB Flash Debug 160k/HAL.o
                0x00403f58                HAL_SoftCounterGet
 .text.PIOA_Handler
                0x00403fb4       0x80 THUMB Flash Debug 160k/HAL.o
                0x00403fb4                PIOA_Handler
 .text.PIOB_Handler
                0x00404034       0x80 THUMB Flash Debug 160k/HAL.o
                0x00404034                PIOB_Handler
 .text.HAL_ADCInit
                0x004040b4      0x10c THUMB Flash Debug 160k/HAL.o
                0x004040b4                HAL_ADCInit
 .text.HAL_ADCDeinit
                0x004041c0       0x18 THUMB Flash Debug 160k/HAL.o
                0x004041c0                HAL_ADCDeinit
 .text.Match.6424
                0x004041d8       0x48 THUMB Flash Debug 160k/HAL.o
 .text.HAL_ADCConfig
                0x00404220      0x250 THUMB Flash Debug 160k/HAL.o
                0x00404220                HAL_ADCConfig
 .text.Mask2.6428
                0x00404470       0x28 THUMB Flash Debug 160k/HAL.o
 .text.HAL_ADCGet
                0x00404498       0x94 THUMB Flash Debug 160k/HAL.o
                0x00404498                HAL_ADCGet
 .text.HAL_ADCGetAll
                0x0040452c       0x84 THUMB Flash Debug 160k/HAL.o
                0x0040452c                HAL_ADCGetAll
 .text.HAL_Init
                0x004045b0      0x1d8 THUMB Flash Debug 160k/HAL.o
                0x004045b0                HAL_Init
 .text.HALW5500_Read
                0x00404788       0x14 THUMB Flash Debug 160k/HALW5500.o
 .text.HALW5500_Write
                0x0040479c       0x1c THUMB Flash Debug 160k/HALW5500.o
 .text.HALW5500_Init
                0x004047b8       0xe4 THUMB Flash Debug 160k/HALW5500.o
                0x004047b8                HALW5500_Init
 .text.HALW5500_IsLinkUp
                0x0040489c       0x2c THUMB Flash Debug 160k/HALW5500.o
                0x0040489c                HALW5500_IsLinkUp
 .text.HALW5500_WaitForLinkUp
                0x004048c8       0x84 THUMB Flash Debug 160k/HALW5500.o
                0x004048c8                HALW5500_WaitForLinkUp
 .text.HALW5500_SetIP
                0x0040494c       0x80 THUMB Flash Debug 160k/HALW5500.o
                0x0040494c                HALW5500_SetIP
 .text.HALW5500_SetGateway
                0x004049cc       0x50 THUMB Flash Debug 160k/HALW5500.o
                0x004049cc                HALW5500_SetGateway
 .text.WaitForStatusReady
                0x00404a1c       0x64 THUMB Flash Debug 160k/HALHSMCI.o
 .text.SendCommand
                0x00404a80       0x2c THUMB Flash Debug 160k/HALHSMCI.o
 .text.GetResponse48
                0x00404aac       0x54 THUMB Flash Debug 160k/HALHSMCI.o
 .text.GetResponse136
                0x00404b00       0x54 THUMB Flash Debug 160k/HALHSMCI.o
 .text.SendCMD0
                0x00404b54       0x18 THUMB Flash Debug 160k/HALHSMCI.o
                0x00404b54                SendCMD0
 .text.SendCMD2
                0x00404b6c       0x2c THUMB Flash Debug 160k/HALHSMCI.o
                0x00404b6c                SendCMD2
 .text.SendCMD3
                0x00404b98       0x40 THUMB Flash Debug 160k/HALHSMCI.o
                0x00404b98                SendCMD3
 .text.SendCMD8
                0x00404bd8       0x4c THUMB Flash Debug 160k/HALHSMCI.o
                0x00404bd8                SendCMD8
 .text.SendCMD9
                0x00404c24        0xc THUMB Flash Debug 160k/HALHSMCI.o
                0x00404c24                SendCMD9
 .text.SendCMD55
                0x00404c30       0x3c THUMB Flash Debug 160k/HALHSMCI.o
                0x00404c30                SendCMD55
 .text.SendACMD41
                0x00404c6c       0x58 THUMB Flash Debug 160k/HALHSMCI.o
                0x00404c6c                SendACMD41
 .text.WaitForReady
                0x00404cc4       0x68 THUMB Flash Debug 160k/HALHSMCI.o
 .text.CardInit
                0x00404d2c      0x260 THUMB Flash Debug 160k/HALHSMCI.o
 .text.ReadStatus
                0x00404f8c       0x34 THUMB Flash Debug 160k/HALHSMCI.o
 .text.ReadBlocksDMA
                0x00404fc0       0xb4 THUMB Flash Debug 160k/HALHSMCI.o
 .text.WriteBlocksDMA
                0x00405074       0xe8 THUMB Flash Debug 160k/HALHSMCI.o
 .text.HALHSMCI_Init
                0x0040515c       0xdc THUMB Flash Debug 160k/HALHSMCI.o
                0x0040515c                HALHSMCI_Init
 .text.HALHSMCI_WriteBlocks
                0x00405238       0x70 THUMB Flash Debug 160k/HALHSMCI.o
                0x00405238                HALHSMCI_WriteBlocks
 .text.HALHSMCI_ReadBlocks
                0x004052a8       0x80 THUMB Flash Debug 160k/HALHSMCI.o
                0x004052a8                HALHSMCI_ReadBlocks
 .text.WIZCHIP_READ
                0x00405328       0x9c THUMB Flash Debug 160k/w5500.o
                0x00405328                WIZCHIP_READ
 .text.WIZCHIP_WRITE
                0x004053c4       0xa4 THUMB Flash Debug 160k/w5500.o
                0x004053c4                WIZCHIP_WRITE
 .text.WIZCHIP_READ_BUF
                0x00405468       0xc8 THUMB Flash Debug 160k/w5500.o
                0x00405468                WIZCHIP_READ_BUF
 .text.WIZCHIP_WRITE_BUF
                0x00405530       0xd0 THUMB Flash Debug 160k/w5500.o
                0x00405530                WIZCHIP_WRITE_BUF
 .text.getSn_TX_FSR
                0x00405600       0xb4 THUMB Flash Debug 160k/w5500.o
                0x00405600                getSn_TX_FSR
 .text.getSn_RX_RSR
                0x004056b4       0xb4 THUMB Flash Debug 160k/w5500.o
                0x004056b4                getSn_RX_RSR
 .text.wiz_send_data
                0x00405768       0xe0 THUMB Flash Debug 160k/w5500.o
                0x00405768                wiz_send_data
 .text.wiz_recv_data
                0x00405848       0xe0 THUMB Flash Debug 160k/w5500.o
                0x00405848                wiz_recv_data
 .text.wiz_recv_ignore
                0x00405928       0xa8 THUMB Flash Debug 160k/w5500.o
                0x00405928                wiz_recv_ignore
 .text.socket   0x004059d0      0x240 THUMB Flash Debug 160k/socket.o
                0x004059d0                socket
 .text.close    0x00405c10       0xf0 THUMB Flash Debug 160k/socket.o
                0x00405c10                close
 .text.listen   0x00405d00       0xf8 THUMB Flash Debug 160k/socket.o
                0x00405d00                listen
 .text.connect  0x00405df8      0x1f4 THUMB Flash Debug 160k/socket.o
                0x00405df8                connect
 .text.disconnect
                0x00405fec      0x128 THUMB Flash Debug 160k/socket.o
                0x00405fec                disconnect
 .text.send     0x00406114      0x25c THUMB Flash Debug 160k/socket.o
                0x00406114                send
 .text.recv     0x00406370      0x1a0 THUMB Flash Debug 160k/socket.o
                0x00406370                recv
 .text.sendto   0x00406510      0x2ac THUMB Flash Debug 160k/socket.o
                0x00406510                sendto
 .text.recvfrom
                0x004067bc      0x3dc THUMB Flash Debug 160k/socket.o
                0x004067bc                recvfrom
 .text.wizchip_cris_enter
                0x00406b98        0xc THUMB Flash Debug 160k/wizchip_conf.o
                0x00406b98                wizchip_cris_enter
 .text.wizchip_cris_exit
                0x00406ba4        0xc THUMB Flash Debug 160k/wizchip_conf.o
                0x00406ba4                wizchip_cris_exit
 .text.wizchip_cs_select
                0x00406bb0        0xc THUMB Flash Debug 160k/wizchip_conf.o
                0x00406bb0                wizchip_cs_select
 .text.wizchip_cs_deselect
                0x00406bbc        0xc THUMB Flash Debug 160k/wizchip_conf.o
                0x00406bbc                wizchip_cs_deselect
 .text.wizchip_bus_readbyte
                0x00406bc8       0x1c THUMB Flash Debug 160k/wizchip_conf.o
                0x00406bc8                wizchip_bus_readbyte
 .text.wizchip_bus_writebyte
                0x00406be4       0x1c THUMB Flash Debug 160k/wizchip_conf.o
                0x00406be4                wizchip_bus_writebyte
 .text.wizchip_spi_readbyte
                0x00406c00       0x10 THUMB Flash Debug 160k/wizchip_conf.o
                0x00406c00                wizchip_spi_readbyte
 .text.wizchip_spi_writebyte
                0x00406c10       0x14 THUMB Flash Debug 160k/wizchip_conf.o
                0x00406c10                wizchip_spi_writebyte
 .text.reg_wizchip_cs_cbfunc
                0x00406c24       0x60 THUMB Flash Debug 160k/wizchip_conf.o
                0x00406c24                reg_wizchip_cs_cbfunc
 .text.reg_wizchip_spi_cbfunc
                0x00406c84       0x74 THUMB Flash Debug 160k/wizchip_conf.o
                0x00406c84                reg_wizchip_spi_cbfunc
 .text.ctlwizchip
                0x00406cf8      0x1ec THUMB Flash Debug 160k/wizchip_conf.o
                0x00406cf8                ctlwizchip
 .text.ctlnetwork
                0x00406ee4       0x84 THUMB Flash Debug 160k/wizchip_conf.o
                0x00406ee4                ctlnetwork
 .text.wizchip_sw_reset
                0x00406f68       0xb4 THUMB Flash Debug 160k/wizchip_conf.o
                0x00406f68                wizchip_sw_reset
 .text.wizchip_init
                0x0040701c      0x12c THUMB Flash Debug 160k/wizchip_conf.o
                0x0040701c                wizchip_init
 .text.wizchip_clrinterrupt
                0x00407148       0x40 THUMB Flash Debug 160k/wizchip_conf.o
                0x00407148                wizchip_clrinterrupt
 .text.wizchip_getinterrupt
                0x00407188       0x54 THUMB Flash Debug 160k/wizchip_conf.o
                0x00407188                wizchip_getinterrupt
 .text.wizchip_setinterruptmask
                0x004071dc       0x38 THUMB Flash Debug 160k/wizchip_conf.o
                0x004071dc                wizchip_setinterruptmask
 .text.wizchip_getinterruptmask
                0x00407214       0x50 THUMB Flash Debug 160k/wizchip_conf.o
                0x00407214                wizchip_getinterruptmask
 .text.wizphy_getphylink
                0x00407264       0x38 THUMB Flash Debug 160k/wizchip_conf.o
                0x00407264                wizphy_getphylink
 .text.wizphy_getphypmode
                0x0040729c       0x3c THUMB Flash Debug 160k/wizchip_conf.o
                0x0040729c                wizphy_getphypmode
 .text.wizphy_reset
                0x004072d8       0x50 THUMB Flash Debug 160k/wizchip_conf.o
                0x004072d8                wizphy_reset
 .text.wizphy_setphyconf
                0x00407328       0x88 THUMB Flash Debug 160k/wizchip_conf.o
                0x00407328                wizphy_setphyconf
 .text.wizphy_getphyconf
                0x004073b0       0xc8 THUMB Flash Debug 160k/wizchip_conf.o
                0x004073b0                wizphy_getphyconf
 .text.wizphy_setphypmode
                0x00407478       0xa0 THUMB Flash Debug 160k/wizchip_conf.o
                0x00407478                wizphy_setphypmode
 .text.wizchip_setnetinfo
                0x00407518       0xa4 THUMB Flash Debug 160k/wizchip_conf.o
                0x00407518                wizchip_setnetinfo
 .text.wizchip_getnetinfo
                0x004075bc       0xa4 THUMB Flash Debug 160k/wizchip_conf.o
                0x004075bc                wizchip_getnetinfo
 .text.wizchip_setnetmode
                0x00407660       0x50 THUMB Flash Debug 160k/wizchip_conf.o
                0x00407660                wizchip_setnetmode
 .text.wizchip_getnetmode
                0x004076b0       0x14 THUMB Flash Debug 160k/wizchip_conf.o
                0x004076b0                wizchip_getnetmode
 .text.wizchip_settimeout
                0x004076c4       0x44 THUMB Flash Debug 160k/wizchip_conf.o
                0x004076c4                wizchip_settimeout
 .text.wizchip_gettimeout
                0x00407708       0x44 THUMB Flash Debug 160k/wizchip_conf.o
                0x00407708                wizchip_gettimeout
 .text.random   0x0040774c       0x3c THUMB Flash Debug 160k/ZeroConf.o
 .text.DoARPProbe
                0x00407788      0x2c4 THUMB Flash Debug 160k/ZeroConf.o
 .text.ZeroConfig2
                0x00407a4c      0x174 THUMB Flash Debug 160k/ZeroConf.o
 .text.ZeroConfig
                0x00407bc0       0x40 THUMB Flash Debug 160k/ZeroConf.o
                0x00407bc0                ZeroConfig
 .text.Malloc   0x00407c00       0xa0 THUMB Flash Debug 160k/Memory.o
 .text.Realloc  0x00407ca0       0xc4 THUMB Flash Debug 160k/Memory.o
 .text.Free     0x00407d64       0x1c THUMB Flash Debug 160k/Memory.o
 .text.Memory_Init
                0x00407d80       0x1c THUMB Flash Debug 160k/Memory.o
                0x00407d80                Memory_Init
 .text.Memory_StartTracker
                0x00407d9c       0x18 THUMB Flash Debug 160k/Memory.o
                0x00407d9c                Memory_StartTracker
 .text.__Memory_Allocate
                0x00407db4       0x98 THUMB Flash Debug 160k/Memory.o
                0x00407db4                __Memory_Allocate
 .text.Memory_AllocLuaVM
                0x00407e4c       0x4c THUMB Flash Debug 160k/Memory.o
                0x00407e4c                Memory_AllocLuaVM
 .text.__Memory_Free
                0x00407e98       0x28 THUMB Flash Debug 160k/Memory.o
                0x00407e98                __Memory_Free
 .text.Memory_FreeLuaVM
                0x00407ec0       0x34 THUMB Flash Debug 160k/Memory.o
                0x00407ec0                Memory_FreeLuaVM
 .text.Memory_Dump
                0x00407ef4       0x68 THUMB Flash Debug 160k/Memory.o
                0x00407ef4                Memory_Dump
 .text.Transfer2
                0x00407f5c       0xd8 THUMB Flash Debug 160k/TFTPBoot.o
 .text.Transfer
                0x00408034       0x7c THUMB Flash Debug 160k/TFTPBoot.o
 .text.FirstPacket
                0x004080b0       0xa0 THUMB Flash Debug 160k/TFTPBoot.o
 .text.NextPacket
                0x00408150       0x30 THUMB Flash Debug 160k/TFTPBoot.o
 .text.ErrorPacket
                0x00408180       0x64 THUMB Flash Debug 160k/TFTPBoot.o
 .text.TFTPBoot_GetFlashImageAddress
                0x004081e4       0x1c THUMB Flash Debug 160k/TFTPBoot.o
                0x004081e4                TFTPBoot_GetFlashImageAddress
 .text.WriteFlash
                0x00408200       0xe4 THUMB Flash Debug 160k/TFTPBoot.o
 .text.Do.6563  0x004082e4      0x104 THUMB Flash Debug 160k/TFTPBoot.o
 .text.TFTPBoot_Flash
                0x004083e8       0x78 THUMB Flash Debug 160k/TFTPBoot.o
                0x004083e8                TFTPBoot_Flash
 .text.Do.6582  0x00408460      0x34c THUMB Flash Debug 160k/TFTPBoot.o
 .text.TFTPBoot_SDCard
                0x004087ac       0xac THUMB Flash Debug 160k/TFTPBoot.o
                0x004087ac                TFTPBoot_SDCard
 .text.TFTPBoot_ErrorToString
                0x00408858       0x98 THUMB Flash Debug 160k/TFTPBoot.o
                0x00408858                TFTPBoot_ErrorToString
 .text.SysLog_Init
                0x004088f0       0x34 THUMB Flash Debug 160k/SysLog.o
                0x004088f0                SysLog_Init
 .text.SysLog_Config
                0x00408924       0x58 THUMB Flash Debug 160k/SysLog.o
                0x00408924                SysLog_Config
 .text.SysLog_Send
                0x0040897c       0x80 THUMB Flash Debug 160k/SysLog.o
                0x0040897c                SysLog_Send
 .text.sha204e_lock_data_zone
                0x004089fc       0x54 THUMB Flash Debug 160k/ATSHA204.o
                0x004089fc                sha204e_lock_data_zone
 .text.ATSHA204_Init
                0x00408a50        0xc THUMB Flash Debug 160k/ATSHA204.o
                0x00408a50                ATSHA204_Init
 .text.ATSHA204_GetSerialNumber
                0x00408a5c       0x70 THUMB Flash Debug 160k/ATSHA204.o
                0x00408a5c                ATSHA204_GetSerialNumber
 .text.IdToHandle
                0x00408acc       0x24 THUMB Flash Debug 160k/LuaLibPin.o
 .text.LuaLibPin_ToId
                0x00408af0       0x60 THUMB Flash Debug 160k/LuaLibPin.o
                0x00408af0                LuaLibPin_ToId
 .text.LuaConfig
                0x00408b50       0xe4 THUMB Flash Debug 160k/LuaLibPin.o
 .text.LuaSet   0x00408c34       0x6c THUMB Flash Debug 160k/LuaLibPin.o
 .text.LuaGet   0x00408ca0       0x64 THUMB Flash Debug 160k/LuaLibPin.o
 .text.LuaGetNames
                0x00408d04       0x34 THUMB Flash Debug 160k/LuaLibPin.o
 .text.LuaLibPin_Register
                0x00408d38       0x30 THUMB Flash Debug 160k/LuaLibPin.o
                0x00408d38                LuaLibPin_Register
 .text.ExpandUsageToBuffer
                0x00408d68      0x3c8 THUMB Flash Debug 160k/LuaLibUtils.o
 .text.LuaUtils_SetStopOnError
                0x00409130       0x20 THUMB Flash Debug 160k/LuaLibUtils.o
                0x00409130                LuaUtils_SetStopOnError
 .text.LuaUtils_DumpTable
                0x00409150      0x1b8 THUMB Flash Debug 160k/LuaLibUtils.o
                0x00409150                LuaUtils_DumpTable
 .text.LuaUtils_CheckParameter1
                0x00409308       0x40 THUMB Flash Debug 160k/LuaLibUtils.o
                0x00409308                LuaUtils_CheckParameter1
 .text.LuaUtils_CheckParameter2
                0x00409348       0x54 THUMB Flash Debug 160k/LuaLibUtils.o
                0x00409348                LuaUtils_CheckParameter2
 .text.LuaUtils_Error
                0x0040939c       0x64 THUMB Flash Debug 160k/LuaLibUtils.o
                0x0040939c                LuaUtils_Error
 .text.LuaUtils_Introduce
                0x00409400      0xe38 THUMB Flash Debug 160k/LuaLibUtils.o
                0x00409400                LuaUtils_Introduce
 .text.LuaUtils_Register
                0x0040a238      0x158 THUMB Flash Debug 160k/LuaLibUtils.o
                0x0040a238                LuaUtils_Register
 .text.LuaOpen  0x0040a390       0xe0 THUMB Flash Debug 160k/LuaLibSerial.o
 .text.LuaClose
                0x0040a470       0x44 THUMB Flash Debug 160k/LuaLibSerial.o
 .text.LuaSend  0x0040a4b4       0x8c THUMB Flash Debug 160k/LuaLibSerial.o
 .text.LuaRecv  0x0040a540      0x178 THUMB Flash Debug 160k/LuaLibSerial.o
 .text.LuaLibSerial_Register
                0x0040a6b8       0x30 THUMB Flash Debug 160k/LuaLibSerial.o
                0x0040a6b8                LuaLibSerial_Register
 .text.LuaInfo  0x0040a6e8       0x9c THUMB Flash Debug 160k/LuaLibSys.o
 .text.LuaDescription
                0x0040a784       0x38 THUMB Flash Debug 160k/LuaLibSys.o
 .text.LuaStop  0x0040a7bc       0x28 THUMB Flash Debug 160k/LuaLibSys.o
 .text.LuaRestart
                0x0040a7e4       0x28 THUMB Flash Debug 160k/LuaLibSys.o
 .text.LuaReboot
                0x0040a80c       0x28 THUMB Flash Debug 160k/LuaLibSys.o
 .text.LuaNorm  0x0040a834      0x15c THUMB Flash Debug 160k/LuaLibSys.o
 .text.LuaSleep
                0x0040a990       0x90 THUMB Flash Debug 160k/LuaLibSys.o
 .text.LuaSetStopOnError
                0x0040aa20       0x3c THUMB Flash Debug 160k/LuaLibSys.o
 .text.LuaIsTicked
                0x0040aa5c       0x5c THUMB Flash Debug 160k/LuaLibSys.o
 .text.LuaShow  0x0040aab8       0x3c THUMB Flash Debug 160k/LuaLibSys.o
 .text.LuaWatchdogInit
                0x0040aaf4       0x70 THUMB Flash Debug 160k/LuaLibSys.o
 .text.LuaWatchdogServe
                0x0040ab64       0x34 THUMB Flash Debug 160k/LuaLibSys.o
 .text.LuaLibSys_Register
                0x0040ab98       0x2c THUMB Flash Debug 160k/LuaLibSys.o
                0x0040ab98                LuaLibSys_Register
 *fill*         0x0040abc4        0x4 00
 .text.Number01ToByte
                0x0040abc8       0xa0 THUMB Flash Debug 160k/LuaLibWS2812.o
 .text.LuaSend  0x0040ac68      0x370 THUMB Flash Debug 160k/LuaLibWS2812.o
 .text.LuaLibWS2812_Register
                0x0040afd8       0x30 THUMB Flash Debug 160k/LuaLibWS2812.o
                0x0040afd8                LuaLibWS2812_Register
 .text.GetLinkFlag
                0x0040b008       0x1c THUMB Flash Debug 160k/LuaLibW5500.o
                0x0040b008                GetLinkFlag
 .text.GetSocket
                0x0040b024       0x60 THUMB Flash Debug 160k/LuaLibW5500.o
                0x0040b024                GetSocket
 .text.PushHandler5Parameter
                0x0040b084       0x58 THUMB Flash Debug 160k/LuaLibW5500.o
 .text.PushHandler2Parameter
                0x0040b0dc       0x30 THUMB Flash Debug 160k/LuaLibW5500.o
 .text.StatusToString
                0x0040b10c      0x1bc THUMB Flash Debug 160k/LuaLibW5500.o
 .text.Add.6957
                0x0040b2c8       0x34 THUMB Flash Debug 160k/LuaLibW5500.o
 .text.EventsToString
                0x0040b2fc       0xe8 THUMB Flash Debug 160k/LuaLibW5500.o
 .text.ErrorCode
                0x0040b3e4      0x118 THUMB Flash Debug 160k/LuaLibW5500.o
 .text.HandelSocket
                0x0040b4fc       0xf8 THUMB Flash Debug 160k/LuaLibW5500.o
 .text.LuaLibW5500_Init
                0x0040b5f4       0x44 THUMB Flash Debug 160k/LuaLibW5500.o
                0x0040b5f4                LuaLibW5500_Init
 .text.LuaLibW5500_GetFreeSocket
                0x0040b638       0x70 THUMB Flash Debug 160k/LuaLibW5500.o
                0x0040b638                LuaLibW5500_GetFreeSocket
 .text.LuaLibW5500_GetSocket0
                0x0040b6a8       0x34 THUMB Flash Debug 160k/LuaLibW5500.o
                0x0040b6a8                LuaLibW5500_GetSocket0
 .text.LuaLibW5500_FreeSocket
                0x0040b6dc       0x40 THUMB Flash Debug 160k/LuaLibW5500.o
                0x0040b6dc                LuaLibW5500_FreeSocket
 .text.ChangeEndian16
                0x0040b71c       0x30 THUMB Flash Debug 160k/LuaLibW5500.o
                0x0040b71c                ChangeEndian16
 .text.IsSpecialIP
                0x0040b74c       0x30 THUMB Flash Debug 160k/LuaLibW5500.o
 .text.StringToIP
                0x0040b77c      0x160 THUMB Flash Debug 160k/LuaLibW5500.o
                0x0040b77c                StringToIP
 .text.IPToString
                0x0040b8dc       0x44 THUMB Flash Debug 160k/LuaLibW5500.o
                0x0040b8dc                IPToString
 .text.MACToSTring
                0x0040b920       0x50 THUMB Flash Debug 160k/LuaLibW5500.o
                0x0040b920                MACToSTring
 .text.LuaSetIP
                0x0040b970       0xa4 THUMB Flash Debug 160k/LuaLibW5500.o
 .text.LuaSetGateway
                0x0040ba14       0x6c THUMB Flash Debug 160k/LuaLibW5500.o
 .text.LuaServe
                0x0040ba80      0x144 THUMB Flash Debug 160k/LuaLibW5500.o
 .text.LuaStringToIP
                0x0040bbc4       0x6c THUMB Flash Debug 160k/LuaLibW5500.o
 .text.LuaIPToString
                0x0040bc30       0x58 THUMB Flash Debug 160k/LuaLibW5500.o
 .text.LuaStatusToString
                0x0040bc88       0x48 THUMB Flash Debug 160k/LuaLibW5500.o
 .text.LuaEventsToString
                0x0040bcd0       0x50 THUMB Flash Debug 160k/LuaLibW5500.o
 .text.LuaCreate
                0x0040bd20      0x214 THUMB Flash Debug 160k/LuaLibW5500.o
 .text.LuaOpen  0x0040bf34       0x8c THUMB Flash Debug 160k/LuaLibW5500.o
 .text.LuaListen
                0x0040bfc0       0x6c THUMB Flash Debug 160k/LuaLibW5500.o
 .text.LuaConnect
                0x0040c02c       0xc4 THUMB Flash Debug 160k/LuaLibW5500.o
 .text.LuaDisconnect
                0x0040c0f0       0x6c THUMB Flash Debug 160k/LuaLibW5500.o
 .text.LuaSend  0x0040c15c      0x140 THUMB Flash Debug 160k/LuaLibW5500.o
 .text.LuaRecv  0x0040c29c      0x2f4 THUMB Flash Debug 160k/LuaLibW5500.o
 .text.LuaSysLog
                0x0040c590       0x44 THUMB Flash Debug 160k/LuaLibW5500.o
 .text.LuaLibW5500_Register
                0x0040c5d4       0x74 THUMB Flash Debug 160k/LuaLibW5500.o
                0x0040c5d4                LuaLibW5500_Register
 .text.Encode   0x0040c648       0x24 THUMB Flash Debug 160k/LuaLibBASE64.o
                0x0040c648                Encode
 .text.Decode   0x0040c66c       0x34 THUMB Flash Debug 160k/LuaLibBASE64.o
                0x0040c66c                Decode
 .text.LuaEncode
                0x0040c6a0      0x5a0 THUMB Flash Debug 160k/LuaLibBASE64.o
 .text.DecodeAndCheck.5994
                0x0040cc40       0x30 THUMB Flash Debug 160k/LuaLibBASE64.o
 .text.LuaDecode
                0x0040cc70      0x39c THUMB Flash Debug 160k/LuaLibBASE64.o
 .text.LuaLibBASE64_Register
                0x0040d00c       0x30 THUMB Flash Debug 160k/LuaLibBASE64.o
                0x0040d00c                LuaLibBASE64_Register
 .text.LuaOpen  0x0040d03c       0xdc THUMB Flash Debug 160k/LuaLibI2C.o
 .text.LuaClose
                0x0040d118       0x44 THUMB Flash Debug 160k/LuaLibI2C.o
 .text.LuaExists
                0x0040d15c      0x250 THUMB Flash Debug 160k/LuaLibI2C.o
 .text.LuaSend  0x0040d3ac       0xe8 THUMB Flash Debug 160k/LuaLibI2C.o
 .text.LuaRecv  0x0040d494      0x1f8 THUMB Flash Debug 160k/LuaLibI2C.o
 .text.LuaLibI2C_Register
                0x0040d68c       0x30 THUMB Flash Debug 160k/LuaLibI2C.o
                0x0040d68c                LuaLibI2C_Register
 .text.StringToNumber
                0x0040d6bc       0x54 THUMB Flash Debug 160k/LuaLibEVE.o
                0x0040d6bc                StringToNumber
 .text.StringToNumber2
                0x0040d710       0x44 THUMB Flash Debug 160k/LuaLibEVE.o
                0x0040d710                StringToNumber2
 .text.LuaALPHA_FUNC
                0x0040d754       0x6c THUMB Flash Debug 160k/LuaLibEVE.o
 .text.LuaBITMAP_HANDLE
                0x0040d7c0       0x3c THUMB Flash Debug 160k/LuaLibEVE.o
 .text.LuaBITMAP_LAYOUT
                0x0040d7fc       0x94 THUMB Flash Debug 160k/LuaLibEVE.o
 .text.LuaBITMAP_SIZE
                0x0040d890      0x110 THUMB Flash Debug 160k/LuaLibEVE.o
 .text.LuaBITMAP_SOURCE
                0x0040d9a0       0x40 THUMB Flash Debug 160k/LuaLibEVE.o
 .text.LuaBITMAP_TFORM_A
                0x0040d9e0       0x40 THUMB Flash Debug 160k/LuaLibEVE.o
 .text.LuaBITMAP_TFORM_B
                0x0040da20       0x40 THUMB Flash Debug 160k/LuaLibEVE.o
 .text.LuaBITMAP_TFORM_C
                0x0040da60       0x3c THUMB Flash Debug 160k/LuaLibEVE.o
 .text.LuaBITMAP_TFORM_D
                0x0040da9c       0x40 THUMB Flash Debug 160k/LuaLibEVE.o
 .text.LuaBITMAP_TFORM_E
                0x0040dadc       0x40 THUMB Flash Debug 160k/LuaLibEVE.o
 .text.LuaBITMAP_TFORM_F
                0x0040db1c       0x40 THUMB Flash Debug 160k/LuaLibEVE.o
 .text.LuaBLEND_FUNC
                0x0040db5c       0x80 THUMB Flash Debug 160k/LuaLibEVE.o
 .text.LuaBEGIN
                0x0040dbdc       0x54 THUMB Flash Debug 160k/LuaLibEVE.o
 .text.LuaCALL  0x0040dc30       0x40 THUMB Flash Debug 160k/LuaLibEVE.o
 .text.LuaCLEAR
                0x0040dc70       0x90 THUMB Flash Debug 160k/LuaLibEVE.o
 .text.LuaCELL  0x0040dd00       0x3c THUMB Flash Debug 160k/LuaLibEVE.o
 .text.LuaCLEAR_STENCIL
                0x0040dd3c       0x38 THUMB Flash Debug 160k/LuaLibEVE.o
 .text.LuaCLEAR_TAG
                0x0040dd74       0x38 THUMB Flash Debug 160k/LuaLibEVE.o
 .text.LuaCOLOR_A
                0x0040ddac       0x38 THUMB Flash Debug 160k/LuaLibEVE.o
 .text.LuaCOLOR_MASK
                0x0040dde4       0x94 THUMB Flash Debug 160k/LuaLibEVE.o
 .text.LuaCOLOR_RGB
                0x0040de78       0x78 THUMB Flash Debug 160k/LuaLibEVE.o
 .text.LuaCLEAR_RGB
                0x0040def0       0x78 THUMB Flash Debug 160k/LuaLibEVE.o
 .text.LuaDISPLAY
                0x0040df68       0x20 THUMB Flash Debug 160k/LuaLibEVE.o
 .text.LuaEND   0x0040df88       0x20 THUMB Flash Debug 160k/LuaLibEVE.o
 .text.LuaJUMP  0x0040dfa8       0x40 THUMB Flash Debug 160k/LuaLibEVE.o
 .text.LuaLINE_WIDTH
                0x0040dfe8       0x60 THUMB Flash Debug 160k/LuaLibEVE.o
 .text.LuaMACRO
                0x0040e048       0x3c THUMB Flash Debug 160k/LuaLibEVE.o
 .text.LuaPOINT_SIZE
                0x0040e084       0x60 THUMB Flash Debug 160k/LuaLibEVE.o
 .text.LuaRAW   0x0040e0e4       0x34 THUMB Flash Debug 160k/LuaLibEVE.o
 .text.LuaRESTORE_CONTEXT
                0x0040e118       0x20 THUMB Flash Debug 160k/LuaLibEVE.o
 .text.LuaRETURN
                0x0040e138       0x20 THUMB Flash Debug 160k/LuaLibEVE.o
 .text.LuaSAVE_CONTEXT
                0x0040e158       0x20 THUMB Flash Debug 160k/LuaLibEVE.o
 .text.LuaSCISSOR_SIZE
                0x0040e178       0x60 THUMB Flash Debug 160k/LuaLibEVE.o
 .text.LuaSCISSOR_XY
                0x0040e1d8       0x60 THUMB Flash Debug 160k/LuaLibEVE.o
 .text.LuaSTENCIL_FUNC
                0x0040e238       0x8c THUMB Flash Debug 160k/LuaLibEVE.o
 .text.LuaSTENCIL_MASK
                0x0040e2c4       0x38 THUMB Flash Debug 160k/LuaLibEVE.o
 .text.LuaSTENCIL_OP
                0x0040e2fc       0x80 THUMB Flash Debug 160k/LuaLibEVE.o
 .text.LuaTAG   0x0040e37c       0x38 THUMB Flash Debug 160k/LuaLibEVE.o
 .text.LuaTAG_MASK
                0x0040e3b4       0x3c THUMB Flash Debug 160k/LuaLibEVE.o
 .text.LuaVERTEX2F
                0x0040e3f0       0xa0 THUMB Flash Debug 160k/LuaLibEVE.o
 .text.LuaVERTEX2II
                0x0040e490       0x9c THUMB Flash Debug 160k/LuaLibEVE.o
 .text.LuaCMD_TEXT
                0x0040e52c      0x11c THUMB Flash Debug 160k/LuaLibEVE.o
 .text.LuaCMD_NUMBER
                0x0040e648      0x120 THUMB Flash Debug 160k/LuaLibEVE.o
 .text.LuaCMD_LOADIDENTITY
                0x0040e768       0x30 THUMB Flash Debug 160k/LuaLibEVE.o
 .text.LuaCMD_TOGGLE
                0x0040e798      0x168 THUMB Flash Debug 160k/LuaLibEVE.o
 .text.LuaCMD_GAUGE
                0x0040e900      0x180 THUMB Flash Debug 160k/LuaLibEVE.o
 .text.LuaCMD_REGREAD
                0x0040ea80       0xb0 THUMB Flash Debug 160k/LuaLibEVE.o
 .text.LuaCMD_GETPROPS
                0x0040eb30       0xdc THUMB Flash Debug 160k/LuaLibEVE.o
 .text.LuaCMD_MEMCPY
                0x0040ec0c       0xdc THUMB Flash Debug 160k/LuaLibEVE.o
 .text.LuaCMD_SPINNER
                0x0040ece8       0xf0 THUMB Flash Debug 160k/LuaLibEVE.o
 .text.LuaCMD_BGCOLOR
                0x0040edd8       0xb4 THUMB Flash Debug 160k/LuaLibEVE.o
 .text.LuaCMD_SWAP
                0x0040ee8c       0x30 THUMB Flash Debug 160k/LuaLibEVE.o
 .text.LuaCMD_INFLATE
                0x0040eebc       0x80 THUMB Flash Debug 160k/LuaLibEVE.o
 .text.LuaCMD_TRANSLATE
                0x0040ef3c       0xb0 THUMB Flash Debug 160k/LuaLibEVE.o
 .text.LuaCMD_STOP
                0x0040efec       0x30 THUMB Flash Debug 160k/LuaLibEVE.o
 .text.LuaCMD_SLIDER
                0x0040f01c      0x168 THUMB Flash Debug 160k/LuaLibEVE.o
 .text.LuaCMD_TOUCHTRANSFORM
                0x0040f184      0x2a8 THUMB Flash Debug 160k/LuaLibEVE.o
 .text.LuaCMD_INTERRUPT
                0x0040f42c       0x80 THUMB Flash Debug 160k/LuaLibEVE.o
 .text.LuaCMD_FGCOLOR
                0x0040f4ac       0x80 THUMB Flash Debug 160k/LuaLibEVE.o
 .text.LuaCMD_ROTATE
                0x0040f52c       0x80 THUMB Flash Debug 160k/LuaLibEVE.o
 .text.LuaCMD_BUTTON
                0x0040f5ac      0x164 THUMB Flash Debug 160k/LuaLibEVE.o
 .text.LuaCMD_MEMWRITE
                0x0040f710       0xb0 THUMB Flash Debug 160k/LuaLibEVE.o
 .text.LuaCMD_SCROLLBAR
                0x0040f7c0      0x184 THUMB Flash Debug 160k/LuaLibEVE.o
 .text.LuaCMD_GETMATRIX
                0x0040f944      0x168 THUMB Flash Debug 160k/LuaLibEVE.o
 .text.LuaCMD_SKETCH
                0x0040faac      0x14c THUMB Flash Debug 160k/LuaLibEVE.o
 .text.LuaCMD_MEMSET
                0x0040fbf8       0xdc THUMB Flash Debug 160k/LuaLibEVE.o
 .text.LuaCMD_GRADCOLOR
                0x0040fcd4       0x80 THUMB Flash Debug 160k/LuaLibEVE.o
 .text.LuaCMD_BITMAPTRANSFORM
                0x0040fd54      0x2a8 THUMB Flash Debug 160k/LuaLibEVE.o
 .text.LuaCMD_CALIBRATE
                0x0040fffc       0x80 THUMB Flash Debug 160k/LuaLibEVE.o
 .text.LuaCMD_SETFONT
                0x0041007c       0xb0 THUMB Flash Debug 160k/LuaLibEVE.o
 .text.LuaCMD_LOGO
                0x0041012c       0x30 THUMB Flash Debug 160k/LuaLibEVE.o
 .text.LuaCMD_APPEND
                0x0041015c       0xb0 THUMB Flash Debug 160k/LuaLibEVE.o
 .text.LuaCMD_MEMZERO
                0x0041020c       0xb0 THUMB Flash Debug 160k/LuaLibEVE.o
 .text.LuaCMD_SCALE
                0x004102bc       0xb0 THUMB Flash Debug 160k/LuaLibEVE.o
 .text.LuaCMD_CLOCK
                0x0041036c      0x180 THUMB Flash Debug 160k/LuaLibEVE.o
 .text.RGB.6893
                0x004104ec       0x8c THUMB Flash Debug 160k/LuaLibEVE.o
 .text.LuaCMD_GRADIENT
                0x00410578      0x178 THUMB Flash Debug 160k/LuaLibEVE.o
 .text.LuaCMD_SETMATRIX
                0x004106f0       0x30 THUMB Flash Debug 160k/LuaLibEVE.o
 .text.LuaCMD_TRACK
                0x00410720      0x124 THUMB Flash Debug 160k/LuaLibEVE.o
 .text.LuaCMD_GETPTR
                0x00410844       0x80 THUMB Flash Debug 160k/LuaLibEVE.o
 .text.LuaCMD_PROGRESS
                0x004108c4      0x168 THUMB Flash Debug 160k/LuaLibEVE.o
 .text.LuaCMD_COLDSTART
                0x00410a2c       0x30 THUMB Flash Debug 160k/LuaLibEVE.o
 .text.LuaCMD_KEYS
                0x00410a5c      0x168 THUMB Flash Debug 160k/LuaLibEVE.o
 .text.LuaCMD_DIAL
                0x00410bc4      0x120 THUMB Flash Debug 160k/LuaLibEVE.o
 .text.LuaCMD_LOADIMAGE
                0x00410ce4       0xb0 THUMB Flash Debug 160k/LuaLibEVE.o
 .text.LuaCMD_DLSTART
                0x00410d94       0x30 THUMB Flash Debug 160k/LuaLibEVE.o
 .text.LuaCMD_SNAPSHOT
                0x00410dc4       0x80 THUMB Flash Debug 160k/LuaLibEVE.o
 .text.LuaCMD_SCREENSAVER
                0x00410e44       0x30 THUMB Flash Debug 160k/LuaLibEVE.o
 .text.LuaCMD_MEMCRC
                0x00410e74       0xdc THUMB Flash Debug 160k/LuaLibEVE.o
 .text.LuaOpen  0x00410f50       0xe8 THUMB Flash Debug 160k/LuaLibEVE.o
 .text.LuaClose
                0x00411038       0x2c THUMB Flash Debug 160k/LuaLibEVE.o
 .text.Append.6997
                0x00411064       0x1c THUMB Flash Debug 160k/LuaLibEVE.o
 .text.LuaSet   0x00411080       0xe8 THUMB Flash Debug 160k/LuaLibEVE.o
 .text.AppendString.7000
                0x00411168       0x1c THUMB Flash Debug 160k/LuaLibEVE.o
 .text.IlterateTable.7003
                0x00411184      0x224 THUMB Flash Debug 160k/LuaLibEVE.o
 .text.Cleanup.7039
                0x004113a8       0x28 THUMB Flash Debug 160k/LuaLibEVE.o
 .text.LuaLoad  0x004113d0      0x23c THUMB Flash Debug 160k/LuaLibEVE.o
 .text.LuaLibEVE_Register
                0x0041160c       0x30 THUMB Flash Debug 160k/LuaLibEVE.o
                0x0041160c                LuaLibEVE_Register
 .text.LuaLibJSON_Register
                0x0041163c       0x84 THUMB Flash Debug 160k/LuaLibJSON.o
                0x0041163c                LuaLibJSON_Register
 .text.LuaOpen  0x004116c0       0x88 THUMB Flash Debug 160k/LuaLibSoftPWM.o
 .text.LuaClose
                0x00411748       0x2c THUMB Flash Debug 160k/LuaLibSoftPWM.o
 .text.LuaConfig
                0x00411774       0xa8 THUMB Flash Debug 160k/LuaLibSoftPWM.o
 *fill*         0x0041181c        0x4 00
 .text.LuaSet   0x00411820      0x1c8 THUMB Flash Debug 160k/LuaLibSoftPWM.o
 .text.LuaLibSoftPWM_Register
                0x004119e8       0x30 THUMB Flash Debug 160k/LuaLibSoftPWM.o
                0x004119e8                LuaLibSoftPWM_Register
 .text.LuaOpen  0x00411a18       0x68 THUMB Flash Debug 160k/LuaLibADC.o
 .text.LuaClose
                0x00411a80       0x2c THUMB Flash Debug 160k/LuaLibADC.o
 .text.LuaConfig
                0x00411aac       0xb0 THUMB Flash Debug 160k/LuaLibADC.o
 .text.LuaGet   0x00411b5c      0x1a4 THUMB Flash Debug 160k/LuaLibADC.o
 .text.LuaLibADC_Register
                0x00411d00       0x30 THUMB Flash Debug 160k/LuaLibADC.o
                0x00411d00                LuaLibADC_Register
 .text.LuaOpen  0x00411d30       0x38 THUMB Flash Debug 160k/LuaLibSoftCounter.o
 .text.LuaClose
                0x00411d68       0x2c THUMB Flash Debug 160k/LuaLibSoftCounter.o
 .text.LuaConfig
                0x00411d94       0xcc THUMB Flash Debug 160k/LuaLibSoftCounter.o
 .text.LuaGet   0x00411e60       0xb4 THUMB Flash Debug 160k/LuaLibSoftCounter.o
 .text.LuaLibSoftCounter_Register
                0x00411f14       0x30 THUMB Flash Debug 160k/LuaLibSoftCounter.o
                0x00411f14                LuaLibSoftCounter_Register
 .text.LuaLibLevelHAL_Register
                0x00411f44       0x14 THUMB Flash Debug 160k/cn.o
                0x00411f44                LuaLibLevelHAL_Register
 .text.LuaLibLevelApp_Register
                0x00411f58       0x14 THUMB Flash Debug 160k/cn.o
                0x00411f58                LuaLibLevelApp_Register
 .text.luaHook  0x00411f6c       0xbc THUMB Flash Debug 160k/cn.o
 .text.CN_Init  0x00412028       0x1c THUMB Flash Debug 160k/cn.o
                0x00412028                CN_Init
 .text.CN_Dump  0x00412044      0x108 THUMB Flash Debug 160k/cn.o
                0x00412044                CN_Dump
 .text.CN_Stop  0x0041214c       0x20 THUMB Flash Debug 160k/cn.o
                0x0041214c                CN_Stop
 .text.CN_Restart
                0x0041216c       0x20 THUMB Flash Debug 160k/cn.o
                0x0041216c                CN_Restart
 .text.CN_Run   0x0041218c      0x2bc THUMB Flash Debug 160k/cn.o
                0x0041218c                CN_Run
 .text.Modifyer_32
                0x00412448       0x34 THUMB Flash Debug 160k/Modifyer.o
                0x00412448                Modifyer_32
 .text.Modifyer_32AutoShift
                0x0041247c       0x40 THUMB Flash Debug 160k/Modifyer.o
                0x0041247c                Modifyer_32AutoShift
 .text.Modifyer_32ByName
                0x004124bc       0xb4 THUMB Flash Debug 160k/Modifyer.o
                0x004124bc                Modifyer_32ByName
 .text.sha204c_calculate_crc
                0x00412570       0xa8 THUMB Flash Debug 160k/sha204_comm.o
                0x00412570                sha204c_calculate_crc
 .text.sha204c_check_crc
                0x00412618       0x5c THUMB Flash Debug 160k/sha204_comm.o
                0x00412618                sha204c_check_crc
 .text.sha204c_wakeup
                0x00412674       0xb0 THUMB Flash Debug 160k/sha204_comm.o
                0x00412674                sha204c_wakeup
 .text.sha204c_resync
                0x00412724       0x4c THUMB Flash Debug 160k/sha204_comm.o
                0x00412724                sha204c_resync
 .text.sha204c_send_and_receive
                0x00412770      0x1f0 THUMB Flash Debug 160k/sha204_comm.o
                0x00412770                sha204c_send_and_receive
 .text.sha204m_lock
                0x00412960       0x9c THUMB Flash Debug 160k/sha204_comm_marshaling.o
                0x00412960                sha204m_lock
 .text.sha204m_read
                0x004129fc       0xf4 THUMB Flash Debug 160k/sha204_comm_marshaling.o
                0x004129fc                sha204m_read
 .text.sha204e_read_config_zone
                0x00412af0      0x270 THUMB Flash Debug 160k/sha204_examples.o
                0x00412af0                sha204e_read_config_zone
 .text.sha204p_init
                0x00412d60        0xc THUMB Flash Debug 160k/sha204_swi.o
                0x00412d60                sha204p_init
 .text.sha204p_set_device_id
                0x00412d6c       0x1c THUMB Flash Debug 160k/sha204_swi.o
                0x00412d6c                sha204p_set_device_id
 .text.sha204p_send_command
                0x00412d88       0x3c THUMB Flash Debug 160k/sha204_swi.o
                0x00412d88                sha204p_send_command
 .text.sha204p_receive_response
                0x00412dc4       0x8c THUMB Flash Debug 160k/sha204_swi.o
                0x00412dc4                sha204p_receive_response
 .text.sha204p_wakeup
                0x00412e50       0x2c THUMB Flash Debug 160k/sha204_swi.o
                0x00412e50                sha204p_wakeup
 .text.sha204p_sleep
                0x00412e7c       0x14 THUMB Flash Debug 160k/sha204_swi.o
                0x00412e7c                sha204p_sleep
 .text.sha204p_resync
                0x00412e90       0x2c THUMB Flash Debug 160k/sha204_swi.o
                0x00412e90                sha204p_resync
 .text.delay_ms
                0x00412ebc       0x1c THUMB Flash Debug 160k/timer_utilities.o
                0x00412ebc                delay_ms
 .text.swi_set_device_id
                0x00412ed8       0x14 THUMB Flash Debug 160k/uart_phys.o
                0x00412ed8                swi_set_device_id
 .text.swi_enable
                0x00412eec        0xc THUMB Flash Debug 160k/uart_phys.o
                0x00412eec                swi_enable
 .text.swi_set_signal_pin
                0x00412ef8       0x1c THUMB Flash Debug 160k/uart_phys.o
                0x00412ef8                swi_set_signal_pin
 .text.swi_send_bytes
                0x00412f14       0x20 THUMB Flash Debug 160k/uart_phys.o
                0x00412f14                swi_send_bytes
 .text.swi_send_byte
                0x00412f34       0x24 THUMB Flash Debug 160k/uart_phys.o
                0x00412f34                swi_send_byte
 .text.swi_receive_bytes
                0x00412f58       0x24 THUMB Flash Debug 160k/uart_phys.o
                0x00412f58                swi_receive_bytes
 .text.WS2812_Send
                0x00412f7c      0xf34 THUMB Flash Debug 160k/WS2812.o
                0x00412f7c                WS2812_Send
 .text.disk_status
                0x00413eb0       0x6c THUMB Flash Debug 160k/diskio.o
                0x00413eb0                disk_status
 .text.disk_initialize
                0x00413f1c       0x48 THUMB Flash Debug 160k/diskio.o
                0x00413f1c                disk_initialize
 .text.disk_read
                0x00413f64       0x7c THUMB Flash Debug 160k/diskio.o
                0x00413f64                disk_read
 .text.disk_write
                0x00413fe0       0x60 THUMB Flash Debug 160k/diskio.o
                0x00413fe0                disk_write
 .text.disk_ioctl
                0x00414040       0x34 THUMB Flash Debug 160k/diskio.o
                0x00414040                disk_ioctl
 .text.mem_cpy  0x00414074       0x50 THUMB Flash Debug 160k/ff.o
 .text.mem_set  0x004140c4       0x44 THUMB Flash Debug 160k/ff.o
 .text.mem_cmp  0x00414108       0x70 THUMB Flash Debug 160k/ff.o
 .text.chk_chr  0x00414178       0x38 THUMB Flash Debug 160k/ff.o
 .text.sync_window
                0x004141b0       0xa0 THUMB Flash Debug 160k/ff.o
 .text.move_window
                0x00414250       0x68 THUMB Flash Debug 160k/ff.o
 .text.sync_fs  0x004142b8      0x180 THUMB Flash Debug 160k/ff.o
 .text.clust2sect
                0x00414438       0x44 THUMB Flash Debug 160k/ff.o
                0x00414438                clust2sect
 .text.get_fat  0x0041447c      0x1b4 THUMB Flash Debug 160k/ff.o
                0x0041447c                get_fat
 .text.put_fat  0x00414630      0x26c THUMB Flash Debug 160k/ff.o
                0x00414630                put_fat
 .text.remove_chain
                0x0041489c       0xb8 THUMB Flash Debug 160k/ff.o
 .text.create_chain
                0x00414954      0x140 THUMB Flash Debug 160k/ff.o
 .text.dir_sdi  0x00414a94      0x118 THUMB Flash Debug 160k/ff.o
 .text.dir_next
                0x00414bac      0x1e0 THUMB Flash Debug 160k/ff.o
 .text.dir_alloc
                0x00414d8c       0x9c THUMB Flash Debug 160k/ff.o
 .text.ld_clust
                0x00414e28       0x64 THUMB Flash Debug 160k/ff.o
 .text.st_clust
                0x00414e8c       0x5c THUMB Flash Debug 160k/ff.o
 .text.cmp_lfn  0x00414ee8      0x100 THUMB Flash Debug 160k/ff.o
 .text.pick_lfn
                0x00414fe8       0xf0 THUMB Flash Debug 160k/ff.o
 .text.fit_lfn  0x004150d8      0x110 THUMB Flash Debug 160k/ff.o
 .text.gen_numname
                0x004151e8      0x144 THUMB Flash Debug 160k/ff.o
 .text.sum_sfn  0x0041532c       0x50 THUMB Flash Debug 160k/ff.o
 .text.dir_find
                0x0041537c      0x180 THUMB Flash Debug 160k/ff.o
 .text.dir_read
                0x004154fc      0x148 THUMB Flash Debug 160k/ff.o
 .text.dir_register
                0x00415644      0x23c THUMB Flash Debug 160k/ff.o
 .text.dir_remove
                0x00415880       0xb4 THUMB Flash Debug 160k/ff.o
 .text.create_name
                0x00415934      0x464 THUMB Flash Debug 160k/ff.o
 .text.follow_path
                0x00415d98      0x11c THUMB Flash Debug 160k/ff.o
 .text.get_ldnumber
                0x00415eb4      0x12c THUMB Flash Debug 160k/ff.o
 .text.check_fs
                0x00415fe0       0xe8 THUMB Flash Debug 160k/ff.o
 .text.find_volume
                0x004160c8      0x5f8 THUMB Flash Debug 160k/ff.o
 .text.validate
                0x004166c0       0x64 THUMB Flash Debug 160k/ff.o
 .text.f_mount  0x00416724       0xa0 THUMB Flash Debug 160k/ff.o
                0x00416724                f_mount
 .text.f_open   0x004167c4      0x304 THUMB Flash Debug 160k/ff.o
                0x004167c4                f_open
 .text.f_read   0x00416ac8      0x264 THUMB Flash Debug 160k/ff.o
                0x00416ac8                f_read
 .text.f_write  0x00416d2c      0x31c THUMB Flash Debug 160k/ff.o
                0x00416d2c                f_write
 .text.f_sync   0x00417048      0x148 THUMB Flash Debug 160k/ff.o
                0x00417048                f_sync
 .text.f_close  0x00417190       0x3c THUMB Flash Debug 160k/ff.o
                0x00417190                f_close
 .text.f_chdrive
                0x004171cc       0x40 THUMB Flash Debug 160k/ff.o
                0x004171cc                f_chdrive
 .text.f_lseek  0x0041720c      0x238 THUMB Flash Debug 160k/ff.o
                0x0041720c                f_lseek
 .text.f_unlink
                0x00417444      0x1c8 THUMB Flash Debug 160k/ff.o
                0x00417444                f_unlink
 .text.f_mkdir  0x0041760c      0x2ec THUMB Flash Debug 160k/ff.o
                0x0041760c                f_mkdir
 .text.f_rename
                0x004178f8      0x228 THUMB Flash Debug 160k/ff.o
                0x004178f8                f_rename
 .text.f_gets   0x00417b20       0x88 THUMB Flash Debug 160k/ff.o
                0x00417b20                f_gets
 .text.putc_bfd
                0x00417ba8       0x7c THUMB Flash Debug 160k/ff.o
 .text.f_printf
                0x00417c24      0x4e4 THUMB Flash Debug 160k/ff.o
                0x00417c24                f_printf
 .text.ff_convert
                0x00418108       0x88 THUMB Flash Debug 160k/unicode.o
                0x00418108                ff_convert
 .text.ff_wtoupper
                0x00418190       0x70 THUMB Flash Debug 160k/unicode.o
                0x00418190                ff_wtoupper
 .text.strerror
                0x00418200      0x144 THUMB Flash Debug 160k/FatFsWrapper.o
                0x00418200                strerror
 .text.fopen    0x00418344       0xa0 THUMB Flash Debug 160k/FatFsWrapper.o
                0x00418344                fopen
 .text.freopen  0x004183e4       0x28 THUMB Flash Debug 160k/FatFsWrapper.o
                0x004183e4                freopen
 .text.fclose   0x0041840c       0x40 THUMB Flash Debug 160k/FatFsWrapper.o
                0x0041840c                fclose
 .text.fprintf  0x0041844c       0x24 THUMB Flash Debug 160k/FatFsWrapper.o
                0x0041844c                fprintf
 .text.fflush   0x00418470       0x34 THUMB Flash Debug 160k/FatFsWrapper.o
                0x00418470                fflush
 .text.getc     0x004184a4       0x40 THUMB Flash Debug 160k/FatFsWrapper.o
                0x004184a4                getc
 .text.ungetc   0x004184e4       0x1c THUMB Flash Debug 160k/FatFsWrapper.o
                0x004184e4                ungetc
 .text.fread    0x00418500       0x4c THUMB Flash Debug 160k/FatFsWrapper.o
                0x00418500                fread
 .text.fgets    0x0041854c       0x30 THUMB Flash Debug 160k/FatFsWrapper.o
                0x0041854c                fgets
 .text.feof     0x0041857c       0x30 THUMB Flash Debug 160k/FatFsWrapper.o
                0x0041857c                feof
 .text.fwrite   0x004185ac       0x90 THUMB Flash Debug 160k/FatFsWrapper.o
                0x004185ac                fwrite
 .text.fseek    0x0041863c       0x94 THUMB Flash Debug 160k/FatFsWrapper.o
                0x0041863c                fseek
 .text.ftell    0x004186d0       0x24 THUMB Flash Debug 160k/FatFsWrapper.o
                0x004186d0                ftell
 .text.remove   0x004186f4       0x28 THUMB Flash Debug 160k/FatFsWrapper.o
                0x004186f4                remove
 .text.rename   0x0041871c       0x2c THUMB Flash Debug 160k/FatFsWrapper.o
                0x0041871c                rename
 .text.ferror   0x00418748       0x30 THUMB Flash Debug 160k/FatFsWrapper.o
                0x00418748                ferror
 .text.clearerr
                0x00418778       0x20 THUMB Flash Debug 160k/FatFsWrapper.o
                0x00418778                clearerr
 .text.tmpnam   0x00418798       0x44 THUMB Flash Debug 160k/FatFsWrapper.o
                0x00418798                tmpnam
 .text.tmpfile  0x004187dc       0x24 THUMB Flash Debug 160k/FatFsWrapper.o
                0x004187dc                tmpfile
 .text.setvbuf  0x00418800       0x20 THUMB Flash Debug 160k/FatFsWrapper.o
                0x00418800                setvbuf
 .text.system   0x00418820       0x18 THUMB Flash Debug 160k/FatFsWrapper.o
                0x00418820                system
 .text.getenv   0x00418838       0x54 THUMB Flash Debug 160k/FatFsWrapper.o
                0x00418838                getenv
 .text.CommandWrite
                0x0041888c       0x34 THUMB Flash Debug 160k/EVE.o
 .text.MemoryWrite8
                0x004188c0       0x50 THUMB Flash Debug 160k/EVE.o
 .text.MemoryWrite16
                0x00418910       0x64 THUMB Flash Debug 160k/EVE.o
 .text.MemoryWrite32
                0x00418974       0x7c THUMB Flash Debug 160k/EVE.o
 .text.MemoryWriteN
                0x004189f0       0x78 THUMB Flash Debug 160k/EVE.o
 .text.MemoryRead8
                0x00418a68       0x58 THUMB Flash Debug 160k/EVE.o
 .text.MemoryRead16
                0x00418ac0       0x70 THUMB Flash Debug 160k/EVE.o
 .text.EVE_Open
                0x00418b30      0x2c4 THUMB Flash Debug 160k/EVE.o
                0x00418b30                EVE_Open
 .text.EVE_Close
                0x00418df4        0xc THUMB Flash Debug 160k/EVE.o
                0x00418df4                EVE_Close
 .text.EVE_CommandBegin
                0x00418e00       0xbc THUMB Flash Debug 160k/EVE.o
                0x00418e00                EVE_CommandBegin
 .text.EVE_CommandAppend
                0x00418ebc       0x68 THUMB Flash Debug 160k/EVE.o
                0x00418ebc                EVE_CommandAppend
 .text.Get.5705
                0x00418f24       0x2c THUMB Flash Debug 160k/EVE.o
 .text.EVE_CommandAppendString
                0x00418f50       0xa0 THUMB Flash Debug 160k/EVE.o
                0x00418f50                EVE_CommandAppendString
 .text.EVE_CommandEnd
                0x00418ff0       0x44 THUMB Flash Debug 160k/EVE.o
                0x00418ff0                EVE_CommandEnd
 .text.EVE_WriteMain
                0x00419034       0x3c THUMB Flash Debug 160k/EVE.o
                0x00419034                EVE_WriteMain
 .text.Transfer2
                0x00419070       0xd4 THUMB Flash Debug 160k/FFS.o
 .text.Transfer
                0x00419144       0x54 THUMB Flash Debug 160k/FFS.o
 .text.FFS_Init
                0x00419198      0x110 THUMB Flash Debug 160k/FFS.o
                0x00419198                FFS_Init
 .text.FFS_GetState
                0x004192a8       0x24 THUMB Flash Debug 160k/FFS.o
                0x004192a8                FFS_GetState
 .text.FFS_ReadBlocks
                0x004192cc       0xbc THUMB Flash Debug 160k/FFS.o
                0x004192cc                FFS_ReadBlocks
 .text.FFS_WriteBlocks
                0x00419388       0xbc THUMB Flash Debug 160k/FFS.o
                0x00419388                FFS_WriteBlocks
 .text.index2addr
                0x00419444       0xc8 THUMB Flash Debug 160k/lapi.o
 .text.growstack
                0x0041950c       0x20 THUMB Flash Debug 160k/lapi.o
 .text.lua_checkstack
                0x0041952c       0xb0 THUMB Flash Debug 160k/lapi.o
                0x0041952c                lua_checkstack
 .text.lua_xmove
                0x004195dc       0x74 THUMB Flash Debug 160k/lapi.o
                0x004195dc                lua_xmove
 .text.lua_version
                0x00419650       0x2c THUMB Flash Debug 160k/lapi.o
                0x00419650                lua_version
 .text.lua_absindex
                0x0041967c       0x48 THUMB Flash Debug 160k/lapi.o
                0x0041967c                lua_absindex
 .text.lua_gettop
                0x004196c4       0x2c THUMB Flash Debug 160k/lapi.o
                0x004196c4                lua_gettop
 .text.lua_settop
                0x004196f0       0x74 THUMB Flash Debug 160k/lapi.o
                0x004196f0                lua_settop
 .text.reverse  0x00419764       0x64 THUMB Flash Debug 160k/lapi.o
 .text.lua_rotate
                0x004197c8       0x74 THUMB Flash Debug 160k/lapi.o
                0x004197c8                lua_rotate
 .text.lua_copy
                0x0041983c       0x88 THUMB Flash Debug 160k/lapi.o
                0x0041983c                lua_copy
 .text.lua_pushvalue
                0x004198c4       0x38 THUMB Flash Debug 160k/lapi.o
                0x004198c4                lua_pushvalue
 .text.lua_type
                0x004198fc       0x3c THUMB Flash Debug 160k/lapi.o
                0x004198fc                lua_type
 .text.lua_typename
                0x00419938       0x28 THUMB Flash Debug 160k/lapi.o
                0x00419938                lua_typename
 .text.lua_iscfunction
                0x00419960       0x3c THUMB Flash Debug 160k/lapi.o
                0x00419960                lua_iscfunction
 .text.lua_isinteger
                0x0041999c       0x2c THUMB Flash Debug 160k/lapi.o
                0x0041999c                lua_isinteger
 .text.lua_isnumber
                0x004199c8       0x48 THUMB Flash Debug 160k/lapi.o
                0x004199c8                lua_isnumber
 .text.lua_isstring
                0x00419a10       0x44 THUMB Flash Debug 160k/lapi.o
                0x00419a10                lua_isstring
 .text.lua_rawequal
                0x00419a54       0x60 THUMB Flash Debug 160k/lapi.o
                0x00419a54                lua_rawequal
 .text.lua_compare
                0x00419ab4       0x94 THUMB Flash Debug 160k/lapi.o
                0x00419ab4                lua_compare
 .text.lua_stringtonumber
                0x00419b48       0x38 THUMB Flash Debug 160k/lapi.o
                0x00419b48                lua_stringtonumber
 .text.lua_tonumberx
                0x00419b80       0x70 THUMB Flash Debug 160k/lapi.o
                0x00419b80                lua_tonumberx
 .text.lua_tointegerx
                0x00419bf0       0x70 THUMB Flash Debug 160k/lapi.o
                0x00419bf0                lua_tointegerx
 .text.lua_toboolean
                0x00419c60       0x44 THUMB Flash Debug 160k/lapi.o
                0x00419c60                lua_toboolean
 .text.lua_tolstring
                0x00419ca4       0x8c THUMB Flash Debug 160k/lapi.o
                0x00419ca4                lua_tolstring
 .text.lua_rawlen
                0x00419d30       0x58 THUMB Flash Debug 160k/lapi.o
                0x00419d30                lua_rawlen
 .text.lua_touserdata
                0x00419d88       0x44 THUMB Flash Debug 160k/lapi.o
                0x00419d88                lua_touserdata
 .text.lua_tothread
                0x00419dcc       0x34 THUMB Flash Debug 160k/lapi.o
                0x00419dcc                lua_tothread
 .text.lua_topointer
                0x00419e00       0xf8 THUMB Flash Debug 160k/lapi.o
                0x00419e00                lua_topointer
 .text.lua_pushnil
                0x00419ef8       0x28 THUMB Flash Debug 160k/lapi.o
                0x00419ef8                lua_pushnil
 .text.lua_pushnumber
                0x00419f20       0x3c THUMB Flash Debug 160k/lapi.o
                0x00419f20                lua_pushnumber
 .text.lua_pushinteger
                0x00419f5c       0x3c THUMB Flash Debug 160k/lapi.o
                0x00419f5c                lua_pushinteger
 .text.lua_pushlstring
                0x00419f98       0x68 THUMB Flash Debug 160k/lapi.o
                0x00419f98                lua_pushlstring
 .text.lua_pushstring
                0x0041a000       0x74 THUMB Flash Debug 160k/lapi.o
                0x0041a000                lua_pushstring
 .text.lua_pushvfstring
                0x0041a074       0x38 THUMB Flash Debug 160k/lapi.o
                0x0041a074                lua_pushvfstring
 .text.lua_pushfstring
                0x0041a0ac       0x40 THUMB Flash Debug 160k/lapi.o
                0x0041a0ac                lua_pushfstring
 .text.lua_pushcclosure
                0x0041a0ec       0xcc THUMB Flash Debug 160k/lapi.o
                0x0041a0ec                lua_pushcclosure
 .text.lua_pushboolean
                0x0041a1b8       0x3c THUMB Flash Debug 160k/lapi.o
                0x0041a1b8                lua_pushboolean
 .text.lua_pushlightuserdata
                0x0041a1f4       0x34 THUMB Flash Debug 160k/lapi.o
                0x0041a1f4                lua_pushlightuserdata
 .text.lua_pushthread
                0x0041a228       0x4c THUMB Flash Debug 160k/lapi.o
                0x0041a228                lua_pushthread
 .text.lua_getglobal
                0x0041a274       0x84 THUMB Flash Debug 160k/lapi.o
                0x0041a274                lua_getglobal
 .text.lua_gettable
                0x0041a2f8       0x48 THUMB Flash Debug 160k/lapi.o
                0x0041a2f8                lua_gettable
 .text.lua_getfield
                0x0041a340       0x7c THUMB Flash Debug 160k/lapi.o
                0x0041a340                lua_getfield
 .text.lua_geti
                0x0041a3bc       0x70 THUMB Flash Debug 160k/lapi.o
                0x0041a3bc                lua_geti
 .text.lua_rawget
                0x0041a42c       0x5c THUMB Flash Debug 160k/lapi.o
                0x0041a42c                lua_rawget
 .text.lua_rawgeti
                0x0041a488       0x60 THUMB Flash Debug 160k/lapi.o
                0x0041a488                lua_rawgeti
 .text.lua_rawgetp
                0x0041a4e8       0x74 THUMB Flash Debug 160k/lapi.o
                0x0041a4e8                lua_rawgetp
 .text.lua_createtable
                0x0041a55c       0x6c THUMB Flash Debug 160k/lapi.o
                0x0041a55c                lua_createtable
 .text.lua_getmetatable
                0x0041a5c8       0x9c THUMB Flash Debug 160k/lapi.o
                0x0041a5c8                lua_getmetatable
 .text.lua_getuservalue
                0x0041a664       0x5c THUMB Flash Debug 160k/lapi.o
                0x0041a664                lua_getuservalue
 .text.lua_setglobal
                0x0041a6c0       0x80 THUMB Flash Debug 160k/lapi.o
                0x0041a6c0                lua_setglobal
 .text.lua_settable
                0x0041a740       0x44 THUMB Flash Debug 160k/lapi.o
                0x0041a740                lua_settable
 .text.lua_setfield
                0x0041a784       0x74 THUMB Flash Debug 160k/lapi.o
                0x0041a784                lua_setfield
 .text.lua_seti
                0x0041a7f8       0x68 THUMB Flash Debug 160k/lapi.o
                0x0041a7f8                lua_seti
 .text.lua_rawset
                0x0041a860       0x9c THUMB Flash Debug 160k/lapi.o
                0x0041a860                lua_rawset
 .text.lua_rawseti
                0x0041a8fc       0x84 THUMB Flash Debug 160k/lapi.o
                0x0041a8fc                lua_rawseti
 .text.lua_rawsetp
                0x0041a980       0xa4 THUMB Flash Debug 160k/lapi.o
                0x0041a980                lua_rawsetp
 .text.lua_setmetatable
                0x0041aa24      0x11c THUMB Flash Debug 160k/lapi.o
                0x0041aa24                lua_setmetatable
 .text.lua_setuservalue
                0x0041ab40       0xa0 THUMB Flash Debug 160k/lapi.o
                0x0041ab40                lua_setuservalue
 .text.lua_callk
                0x0041abe0       0x88 THUMB Flash Debug 160k/lapi.o
                0x0041abe0                lua_callk
 .text.f_call   0x0041ac68       0x2c THUMB Flash Debug 160k/lapi.o
 .text.lua_pcallk
                0x0041ac94      0x13c THUMB Flash Debug 160k/lapi.o
                0x0041ac94                lua_pcallk
 .text.lua_load
                0x0041add0       0xc4 THUMB Flash Debug 160k/lapi.o
                0x0041add0                lua_load
 .text.lua_dump
                0x0041ae94       0x50 THUMB Flash Debug 160k/lapi.o
                0x0041ae94                lua_dump
 .text.lua_status
                0x0041aee4       0x18 THUMB Flash Debug 160k/lapi.o
                0x0041aee4                lua_status
 .text.lua_gc   0x0041aefc      0x170 THUMB Flash Debug 160k/lapi.o
                0x0041aefc                lua_gc
 .text.lua_error
                0x0041b06c       0x10 THUMB Flash Debug 160k/lapi.o
                0x0041b06c                lua_error
 .text.lua_next
                0x0041b07c       0x60 THUMB Flash Debug 160k/lapi.o
                0x0041b07c                lua_next
 .text.lua_concat
                0x0041b0dc       0x78 THUMB Flash Debug 160k/lapi.o
                0x0041b0dc                lua_concat
 .text.lua_len  0x0041b154       0x38 THUMB Flash Debug 160k/lapi.o
                0x0041b154                lua_len
 .text.lua_newuserdata
                0x0041b18c       0x5c THUMB Flash Debug 160k/lapi.o
                0x0041b18c                lua_newuserdata
 .text.aux_upvalue
                0x0041b1e8       0xf8 THUMB Flash Debug 160k/lapi.o
 .text.lua_getupvalue
                0x0041b2e0       0x68 THUMB Flash Debug 160k/lapi.o
                0x0041b2e0                lua_getupvalue
 .text.lua_setupvalue
                0x0041b348       0xe8 THUMB Flash Debug 160k/lapi.o
                0x0041b348                lua_setupvalue
 .text.getupvalref
                0x0041b430       0x48 THUMB Flash Debug 160k/lapi.o
 .text.lua_upvalueid
                0x0041b478       0x68 THUMB Flash Debug 160k/lapi.o
                0x0041b478                lua_upvalueid
 .text.lua_upvaluejoin
                0x0041b4e0       0xa4 THUMB Flash Debug 160k/lapi.o
                0x0041b4e0                lua_upvaluejoin
 .text.findfield
                0x0041b584       0xe8 THUMB Flash Debug 160k/lauxlib.o
 .text.pushglobalfuncname
                0x0041b66c       0xdc THUMB Flash Debug 160k/lauxlib.o
 .text.pushfuncname
                0x0041b748       0xd0 THUMB Flash Debug 160k/lauxlib.o
 .text.countlevels
                0x0041b818       0x84 THUMB Flash Debug 160k/lauxlib.o
 .text.luaL_traceback
                0x0041b89c      0x14c THUMB Flash Debug 160k/lauxlib.o
                0x0041b89c                luaL_traceback
 .text.luaL_argerror
                0x0041b9e8       0xe0 THUMB Flash Debug 160k/lauxlib.o
                0x0041b9e8                luaL_argerror
 .text.typeerror
                0x0041bac8       0x94 THUMB Flash Debug 160k/lauxlib.o
 .text.tag_error
                0x0041bb5c       0x28 THUMB Flash Debug 160k/lauxlib.o
 .text.luaL_where
                0x0041bb84       0x6c THUMB Flash Debug 160k/lauxlib.o
                0x0041bb84                luaL_where
 .text.luaL_error
                0x0041bbf0       0x48 THUMB Flash Debug 160k/lauxlib.o
                0x0041bbf0                luaL_error
 .text.luaL_fileresult
                0x0041bc38       0x80 THUMB Flash Debug 160k/lauxlib.o
                0x0041bc38                luaL_fileresult
 .text.luaL_execresult
                0x0041bcb8       0x74 THUMB Flash Debug 160k/lauxlib.o
                0x0041bcb8                luaL_execresult
 .text.luaL_newmetatable
                0x0041bd2c       0x80 THUMB Flash Debug 160k/lauxlib.o
                0x0041bd2c                luaL_newmetatable
 .text.luaL_setmetatable
                0x0041bdac       0x2c THUMB Flash Debug 160k/lauxlib.o
                0x0041bdac                luaL_setmetatable
 .text.luaL_testudata
                0x0041bdd8       0x74 THUMB Flash Debug 160k/lauxlib.o
                0x0041bdd8                luaL_testudata
 .text.luaL_checkudata
                0x0041be4c       0x38 THUMB Flash Debug 160k/lauxlib.o
                0x0041be4c                luaL_checkudata
 .text.luaL_checkoption
                0x0041be84       0x9c THUMB Flash Debug 160k/lauxlib.o
                0x0041be84                luaL_checkoption
 .text.luaL_checkstack
                0x0041bf20       0x54 THUMB Flash Debug 160k/lauxlib.o
                0x0041bf20                luaL_checkstack
 .text.luaL_checktype
                0x0041bf74       0x30 THUMB Flash Debug 160k/lauxlib.o
                0x0041bf74                luaL_checktype
 .text.luaL_checkany
                0x0041bfa4       0x34 THUMB Flash Debug 160k/lauxlib.o
                0x0041bfa4                luaL_checkany
 .text.luaL_checklstring
                0x0041bfd8       0x38 THUMB Flash Debug 160k/lauxlib.o
                0x0041bfd8                luaL_checklstring
 .text.luaL_optlstring
                0x0041c010       0x54 THUMB Flash Debug 160k/lauxlib.o
                0x0041c010                luaL_optlstring
 .text.luaL_checknumber
                0x0041c064       0x44 THUMB Flash Debug 160k/lauxlib.o
                0x0041c064                luaL_checknumber
 .text.luaL_optnumber
                0x0041c0a8       0x3c THUMB Flash Debug 160k/lauxlib.o
                0x0041c0a8                luaL_optnumber
 .text.interror
                0x0041c0e4       0x40 THUMB Flash Debug 160k/lauxlib.o
 .text.luaL_checkinteger
                0x0041c124       0x40 THUMB Flash Debug 160k/lauxlib.o
                0x0041c124                luaL_checkinteger
 .text.luaL_optinteger
                0x0041c164       0x3c THUMB Flash Debug 160k/lauxlib.o
                0x0041c164                luaL_optinteger
 .text.luaL_prepbuffsize
                0x0041c1a0       0xcc THUMB Flash Debug 160k/lauxlib.o
                0x0041c1a0                luaL_prepbuffsize
 .text.luaL_addlstring
                0x0041c26c       0x38 THUMB Flash Debug 160k/lauxlib.o
                0x0041c26c                luaL_addlstring
 .text.luaL_addstring
                0x0041c2a4       0x24 THUMB Flash Debug 160k/lauxlib.o
                0x0041c2a4                luaL_addstring
 .text.luaL_pushresult
                0x0041c2c8       0x50 THUMB Flash Debug 160k/lauxlib.o
                0x0041c2c8                luaL_pushresult
 .text.luaL_pushresultsize
                0x0041c318       0x24 THUMB Flash Debug 160k/lauxlib.o
                0x0041c318                luaL_pushresultsize
 .text.luaL_addvalue
                0x0041c33c       0x80 THUMB Flash Debug 160k/lauxlib.o
                0x0041c33c                luaL_addvalue
 .text.luaL_buffinit
                0x0041c3bc       0x34 THUMB Flash Debug 160k/lauxlib.o
                0x0041c3bc                luaL_buffinit
 .text.luaL_buffinitsize
                0x0041c3f0       0x28 THUMB Flash Debug 160k/lauxlib.o
                0x0041c3f0                luaL_buffinitsize
 .text.getF     0x0041c418       0x70 THUMB Flash Debug 160k/lauxlib.o
 .text.errfile  0x0041c488       0x6c THUMB Flash Debug 160k/lauxlib.o
 .text.skipBOM  0x0041c4f4       0x90 THUMB Flash Debug 160k/lauxlib.o
 .text.skipcomment
                0x0041c584       0x64 THUMB Flash Debug 160k/lauxlib.o
 .text.luaL_loadfilex
                0x0041c5e8      0x1b4 THUMB Flash Debug 160k/lauxlib.o
                0x0041c5e8                luaL_loadfilex
 .text.getS     0x0041c79c       0x40 THUMB Flash Debug 160k/lauxlib.o
 .text.luaL_loadbufferx
                0x0041c7dc       0x3c THUMB Flash Debug 160k/lauxlib.o
                0x0041c7dc                luaL_loadbufferx
 .text.luaL_getmetafield
                0x0041c818       0x6c THUMB Flash Debug 160k/lauxlib.o
                0x0041c818                luaL_getmetafield
 .text.luaL_callmeta
                0x0041c884       0x5c THUMB Flash Debug 160k/lauxlib.o
                0x0041c884                luaL_callmeta
 .text.luaL_len
                0x0041c8e0       0x58 THUMB Flash Debug 160k/lauxlib.o
                0x0041c8e0                luaL_len
 .text.luaL_tolstring
                0x0041c938      0x12c THUMB Flash Debug 160k/lauxlib.o
                0x0041c938                luaL_tolstring
 .text.luaL_setfuncs
                0x0041ca64       0x90 THUMB Flash Debug 160k/lauxlib.o
                0x0041ca64                luaL_setfuncs
 .text.luaL_getsubtable
                0x0041caf4       0x68 THUMB Flash Debug 160k/lauxlib.o
                0x0041caf4                luaL_getsubtable
 .text.luaL_requiref
                0x0041cb5c       0xc4 THUMB Flash Debug 160k/lauxlib.o
                0x0041cb5c                luaL_requiref
 .text.luaL_gsub
                0x0041cc20      0x124 THUMB Flash Debug 160k/lauxlib.o
                0x0041cc20                luaL_gsub
 .text.luaL_checkversion_
                0x0041cd44       0x88 THUMB Flash Debug 160k/lauxlib.o
                0x0041cd44                luaL_checkversion_
 .text.luaB_print
                0x0041cdcc      0x110 THUMB Flash Debug 160k/lbaselib.o
 .text.b_str2int
                0x0041cedc      0x134 THUMB Flash Debug 160k/lbaselib.o
 .text.luaB_tonumber
                0x0041d010      0x138 THUMB Flash Debug 160k/lbaselib.o
 .text.luaB_error
                0x0041d148       0x70 THUMB Flash Debug 160k/lbaselib.o
 .text.luaB_getmetatable
                0x0041d1b8       0x50 THUMB Flash Debug 160k/lbaselib.o
 .text.luaB_setmetatable
                0x0041d208       0x94 THUMB Flash Debug 160k/lbaselib.o
 .text.luaB_rawequal
                0x0041d29c       0x44 THUMB Flash Debug 160k/lbaselib.o
 .text.luaB_rawlen
                0x0041d2e0       0x60 THUMB Flash Debug 160k/lbaselib.o
 .text.luaB_rawget
                0x0041d340       0x44 THUMB Flash Debug 160k/lbaselib.o
 .text.luaB_rawset
                0x0041d384       0x4c THUMB Flash Debug 160k/lbaselib.o
 .text.luaB_collectgarbage
                0x0041d3d0       0xe8 THUMB Flash Debug 160k/lbaselib.o
 .text.luaB_type
                0x0041d4b8       0x3c THUMB Flash Debug 160k/lbaselib.o
 .text.pairsmeta
                0x0041d4f4       0x94 THUMB Flash Debug 160k/lbaselib.o
 .text.luaB_next
                0x0041d588       0x4c THUMB Flash Debug 160k/lbaselib.o
 .text.luaB_pairs
                0x0041d5d4       0x30 THUMB Flash Debug 160k/lbaselib.o
 .text.ipairsaux_raw
                0x0041d604       0x64 THUMB Flash Debug 160k/lbaselib.o
 .text.ipairsaux
                0x0041d668       0x58 THUMB Flash Debug 160k/lbaselib.o
 .text.luaB_ipairs
                0x0041d6c0       0x70 THUMB Flash Debug 160k/lbaselib.o
 .text.load_aux
                0x0041d730       0x68 THUMB Flash Debug 160k/lbaselib.o
 .text.luaB_loadfile
                0x0041d798       0x78 THUMB Flash Debug 160k/lbaselib.o
 .text.generic_reader
                0x0041d810       0xb8 THUMB Flash Debug 160k/lbaselib.o
 .text.luaB_load
                0x0041d8c8       0xec THUMB Flash Debug 160k/lbaselib.o
 .text.dofilecont
                0x0041d9b4       0x24 THUMB Flash Debug 160k/lbaselib.o
 .text.luaB_dofile
                0x0041d9d8       0x7c THUMB Flash Debug 160k/lbaselib.o
 .text.luaB_assert
                0x0041da54       0x74 THUMB Flash Debug 160k/lbaselib.o
 .text.luaB_select
                0x0041dac8       0xe4 THUMB Flash Debug 160k/lbaselib.o
 .text.finishpcall
                0x0041dbac       0x48 THUMB Flash Debug 160k/lbaselib.o
 .text.luaB_pcall
                0x0041dbf4       0x74 THUMB Flash Debug 160k/lbaselib.o
 .text.luaB_xpcall
                0x0041dc68       0x84 THUMB Flash Debug 160k/lbaselib.o
 .text.luaB_tostring
                0x0041dcec       0x30 THUMB Flash Debug 160k/lbaselib.o
 .text.luaopen_base
                0x0041dd1c       0xcc THUMB Flash Debug 160k/lbaselib.o
                0x0041dd1c                luaopen_base
 .text.tonumeral
                0x0041dde8       0x88 THUMB Flash Debug 160k/lcode.o
 .text.luaK_nil
                0x0041de70       0xfc THUMB Flash Debug 160k/lcode.o
                0x0041de70                luaK_nil
 .text.luaK_jump
                0x0041df6c       0x4c THUMB Flash Debug 160k/lcode.o
                0x0041df6c                luaK_jump
 .text.luaK_ret
                0x0041dfb8       0x2c THUMB Flash Debug 160k/lcode.o
                0x0041dfb8                luaK_ret
 .text.condjump
                0x0041dfe4       0x34 THUMB Flash Debug 160k/lcode.o
 .text.fixjump  0x0041e018       0x78 THUMB Flash Debug 160k/lcode.o
 .text.luaK_getlabel
                0x0041e090       0x20 THUMB Flash Debug 160k/lcode.o
                0x0041e090                luaK_getlabel
 .text.getjump  0x0041e0b0       0x50 THUMB Flash Debug 160k/lcode.o
 .text.getjumpcontrol
                0x0041e100       0x58 THUMB Flash Debug 160k/lcode.o
 .text.need_value
                0x0041e158       0x50 THUMB Flash Debug 160k/lcode.o
 .text.patchtestreg
                0x0041e1a8       0x90 THUMB Flash Debug 160k/lcode.o
 .text.removevalues
                0x0041e238       0x34 THUMB Flash Debug 160k/lcode.o
 .text.patchlistaux
                0x0041e26c       0x58 THUMB Flash Debug 160k/lcode.o
 .text.dischargejpc
                0x0041e2c4       0x34 THUMB Flash Debug 160k/lcode.o
 .text.luaK_patchlist
                0x0041e2f8       0x3c THUMB Flash Debug 160k/lcode.o
                0x0041e2f8                luaK_patchlist
 .text.luaK_patchclose
                0x0041e334       0x68 THUMB Flash Debug 160k/lcode.o
                0x0041e334                luaK_patchclose
 .text.luaK_patchtohere
                0x0041e39c       0x28 THUMB Flash Debug 160k/lcode.o
                0x0041e39c                luaK_patchtohere
 .text.luaK_concat
                0x0041e3c4       0x5c THUMB Flash Debug 160k/lcode.o
                0x0041e3c4                luaK_concat
 .text.luaK_code
                0x0041e420       0xd4 THUMB Flash Debug 160k/lcode.o
 .text.luaK_codeABC
                0x0041e4f4       0x40 THUMB Flash Debug 160k/lcode.o
                0x0041e4f4                luaK_codeABC
 .text.luaK_codeABx
                0x0041e534       0x38 THUMB Flash Debug 160k/lcode.o
                0x0041e534                luaK_codeABx
 .text.codeextraarg
                0x0041e56c       0x28 THUMB Flash Debug 160k/lcode.o
 .text.luaK_codek
                0x0041e594       0x54 THUMB Flash Debug 160k/lcode.o
                0x0041e594                luaK_codek
 .text.luaK_checkstack
                0x0041e5e8       0x50 THUMB Flash Debug 160k/lcode.o
                0x0041e5e8                luaK_checkstack
 .text.luaK_reserveregs
                0x0041e638       0x30 THUMB Flash Debug 160k/lcode.o
                0x0041e638                luaK_reserveregs
 .text.freereg  0x0041e668       0x40 THUMB Flash Debug 160k/lcode.o
 .text.freeexp  0x0041e6a8       0x28 THUMB Flash Debug 160k/lcode.o
 .text.addk     0x0041e6d0      0x178 THUMB Flash Debug 160k/lcode.o
 .text.luaK_stringK
                0x0041e848       0x48 THUMB Flash Debug 160k/lcode.o
                0x0041e848                luaK_stringK
 .text.luaK_intK
                0x0041e890       0x58 THUMB Flash Debug 160k/lcode.o
                0x0041e890                luaK_intK
 .text.luaK_numberK
                0x0041e8e8       0x44 THUMB Flash Debug 160k/lcode.o
 .text.boolK    0x0041e92c       0x3c THUMB Flash Debug 160k/lcode.o
 .text.nilK     0x0041e968       0x48 THUMB Flash Debug 160k/lcode.o
 .text.luaK_setreturns
                0x0041e9b0       0xe4 THUMB Flash Debug 160k/lcode.o
                0x0041e9b0                luaK_setreturns
 .text.luaK_setoneret
                0x0041ea94       0x84 THUMB Flash Debug 160k/lcode.o
                0x0041ea94                luaK_setoneret
 .text.luaK_dischargevars
                0x0041eb18       0xd8 THUMB Flash Debug 160k/lcode.o
                0x0041eb18                luaK_dischargevars
 .text.code_label
                0x0041ebf0       0x34 THUMB Flash Debug 160k/lcode.o
 .text.discharge2reg
                0x0041ec24      0x134 THUMB Flash Debug 160k/lcode.o
 .text.discharge2anyreg
                0x0041ed58       0x38 THUMB Flash Debug 160k/lcode.o
 .text.exp2reg  0x0041ed90      0x110 THUMB Flash Debug 160k/lcode.o
 .text.luaK_exp2nextreg
                0x0041eea0       0x40 THUMB Flash Debug 160k/lcode.o
                0x0041eea0                luaK_exp2nextreg
 .text.luaK_exp2anyreg
                0x0041eee0       0x64 THUMB Flash Debug 160k/lcode.o
                0x0041eee0                luaK_exp2anyreg
 .text.luaK_exp2anyregup
                0x0041ef44       0x30 THUMB Flash Debug 160k/lcode.o
                0x0041ef44                luaK_exp2anyregup
 .text.luaK_exp2val
                0x0041ef74       0x30 THUMB Flash Debug 160k/lcode.o
                0x0041ef74                luaK_exp2val
 .text.luaK_exp2RK
                0x0041efa4       0xe8 THUMB Flash Debug 160k/lcode.o
                0x0041efa4                luaK_exp2RK
 .text.luaK_storevar
                0x0041f08c       0xa4 THUMB Flash Debug 160k/lcode.o
                0x0041f08c                luaK_storevar
 .text.luaK_self
                0x0041f130       0x70 THUMB Flash Debug 160k/lcode.o
                0x0041f130                luaK_self
 .text.invertjump
                0x0041f1a0       0x48 THUMB Flash Debug 160k/lcode.o
 .text.jumponcond
                0x0041f1e8       0x98 THUMB Flash Debug 160k/lcode.o
 .text.luaK_goiftrue
                0x0041f280       0xa4 THUMB Flash Debug 160k/lcode.o
                0x0041f280                luaK_goiftrue
 .text.luaK_goiffalse
                0x0041f324       0x74 THUMB Flash Debug 160k/lcode.o
                0x0041f324                luaK_goiffalse
 .text.codenot  0x0041f398       0xe0 THUMB Flash Debug 160k/lcode.o
 .text.luaK_indexed
                0x0041f478       0x4c THUMB Flash Debug 160k/lcode.o
                0x0041f478                luaK_indexed
 .text.validop  0x0041f4c4       0xf8 THUMB Flash Debug 160k/lcode.o
 .text.constfolding
                0x0041f5bc       0xf4 THUMB Flash Debug 160k/lcode.o
 .text.codeexpval
                0x0041f6b0       0xcc THUMB Flash Debug 160k/lcode.o
 .text.codecomp
                0x0041f77c       0x80 THUMB Flash Debug 160k/lcode.o
 .text.luaK_prefix
                0x0041f7fc       0x78 THUMB Flash Debug 160k/lcode.o
                0x0041f7fc                luaK_prefix
 .text.luaK_infix
                0x0041f874       0xc0 THUMB Flash Debug 160k/lcode.o
                0x0041f874                luaK_infix
 .text.luaK_posfix
                0x0041f934      0x1cc THUMB Flash Debug 160k/lcode.o
                0x0041f934                luaK_posfix
 .text.luaK_fixline
                0x0041fb00       0x2c THUMB Flash Debug 160k/lcode.o
                0x0041fb00                luaK_fixline
 .text.luaK_setlist
                0x0041fb2c       0xb4 THUMB Flash Debug 160k/lcode.o
                0x0041fb2c                luaK_setlist
 .text.getco    0x0041fbe0       0x40 THUMB Flash Debug 160k/lcorolib.o
 .text.auxresume
                0x0041fc20       0xf4 THUMB Flash Debug 160k/lcorolib.o
 .text.luaB_coresume
                0x0041fd14       0x7c THUMB Flash Debug 160k/lcorolib.o
 .text.luaB_auxwrap
                0x0041fd90       0x7c THUMB Flash Debug 160k/lcorolib.o
 .text.luaB_cocreate
                0x0041fe0c       0x44 THUMB Flash Debug 160k/lcorolib.o
 .text.luaB_cowrap
                0x0041fe50       0x30 THUMB Flash Debug 160k/lcorolib.o
 .text.luaB_yield
                0x0041fe80       0x2c THUMB Flash Debug 160k/lcorolib.o
 .text.luaB_costatus
                0x0041feac       0xd4 THUMB Flash Debug 160k/lcorolib.o
 .text.luaB_yieldable
                0x0041ff80       0x28 THUMB Flash Debug 160k/lcorolib.o
 .text.luaB_corunning
                0x0041ffa8       0x28 THUMB Flash Debug 160k/lcorolib.o
 .text.luaopen_coroutine
                0x0041ffd0       0x50 THUMB Flash Debug 160k/lcorolib.o
                0x0041ffd0                luaopen_coroutine
 .text.db_getregistry
                0x00420020       0x24 THUMB Flash Debug 160k/ldblib.o
 .text.db_getmetatable
                0x00420044       0x38 THUMB Flash Debug 160k/ldblib.o
 .text.db_setmetatable
                0x0042007c       0x5c THUMB Flash Debug 160k/ldblib.o
 .text.db_getuservalue
                0x004200d8       0x38 THUMB Flash Debug 160k/ldblib.o
 .text.db_setuservalue
                0x00420110       0x44 THUMB Flash Debug 160k/ldblib.o
 .text.getthread
                0x00420154       0x44 THUMB Flash Debug 160k/ldblib.o
 .text.settabss
                0x00420198       0x28 THUMB Flash Debug 160k/ldblib.o
 .text.settabsi
                0x004201c0       0x30 THUMB Flash Debug 160k/ldblib.o
 .text.settabsb
                0x004201f0       0x28 THUMB Flash Debug 160k/ldblib.o
 .text.treatstackoption
                0x00420218       0x44 THUMB Flash Debug 160k/ldblib.o
 .text.db_getinfo
                0x0042025c      0x26c THUMB Flash Debug 160k/ldblib.o
 .text.db_getlocal
                0x004204c8      0x104 THUMB Flash Debug 160k/ldblib.o
 .text.db_setlocal
                0x004205cc       0xd4 THUMB Flash Debug 160k/ldblib.o
 .text.auxupvalue
                0x004206a0       0x88 THUMB Flash Debug 160k/ldblib.o
 .text.db_getupvalue
                0x00420728       0x20 THUMB Flash Debug 160k/ldblib.o
 .text.db_setupvalue
                0x00420748       0x28 THUMB Flash Debug 160k/ldblib.o
 .text.checkupval
                0x00420770       0x5c THUMB Flash Debug 160k/ldblib.o
 .text.db_upvalueid
                0x004207cc       0x40 THUMB Flash Debug 160k/ldblib.o
 .text.db_upvaluejoin
                0x0042080c       0xa0 THUMB Flash Debug 160k/ldblib.o
 .text.hookf    0x004208ac       0x90 THUMB Flash Debug 160k/ldblib.o
 .text.makemask
                0x0042093c       0x74 THUMB Flash Debug 160k/ldblib.o
 .text.unmakemask
                0x004209b0       0x88 THUMB Flash Debug 160k/ldblib.o
 .text.db_sethook
                0x00420a38      0x16c THUMB Flash Debug 160k/ldblib.o
 .text.db_gethook
                0x00420ba4       0xe0 THUMB Flash Debug 160k/ldblib.o
 .text.db_debug
                0x00420c84      0x12c THUMB Flash Debug 160k/ldblib.o
 .text.db_traceback
                0x00420db0       0x98 THUMB Flash Debug 160k/ldblib.o
 .text.luaopen_debug
                0x00420e48       0x50 THUMB Flash Debug 160k/ldblib.o
                0x00420e48                luaopen_debug
 .text.currentpc
                0x00420e98       0x30 THUMB Flash Debug 160k/ldebug.o
 .text.currentline
                0x00420ec8       0x40 THUMB Flash Debug 160k/ldebug.o
 .text.lua_sethook
                0x00420f08       0x68 THUMB Flash Debug 160k/ldebug.o
                0x00420f08                lua_sethook
 .text.lua_gethook
                0x00420f70       0x18 THUMB Flash Debug 160k/ldebug.o
                0x00420f70                lua_gethook
 .text.lua_gethookmask
                0x00420f88       0x1c THUMB Flash Debug 160k/ldebug.o
                0x00420f88                lua_gethookmask
 .text.lua_gethookcount
                0x00420fa4       0x18 THUMB Flash Debug 160k/ldebug.o
                0x00420fa4                lua_gethookcount
 .text.lua_getstack
                0x00420fbc       0x74 THUMB Flash Debug 160k/ldebug.o
                0x00420fbc                lua_getstack
 .text.upvalname
                0x00421030       0x3c THUMB Flash Debug 160k/ldebug.o
 .text.findvararg
                0x0042106c       0x64 THUMB Flash Debug 160k/ldebug.o
 .text.findlocal
                0x004210d0       0xd4 THUMB Flash Debug 160k/ldebug.o
 .text.lua_getlocal
                0x004211a4       0x94 THUMB Flash Debug 160k/ldebug.o
                0x004211a4                lua_getlocal
 .text.lua_setlocal
                0x00421238       0x5c THUMB Flash Debug 160k/ldebug.o
                0x00421238                lua_setlocal
 .text.funcinfo
                0x00421294       0xb4 THUMB Flash Debug 160k/ldebug.o
 .text.collectvalidlines
                0x00421348       0xc0 THUMB Flash Debug 160k/ldebug.o
 .text.auxgetinfo
                0x00421408      0x20c THUMB Flash Debug 160k/ldebug.o
 .text.lua_getinfo
                0x00421614       0xc4 THUMB Flash Debug 160k/ldebug.o
                0x00421614                lua_getinfo
 .text.kname    0x004216d8       0x7c THUMB Flash Debug 160k/ldebug.o
 .text.filterpc
                0x00421754       0x28 THUMB Flash Debug 160k/ldebug.o
 .text.findsetreg
                0x0042177c      0x1e8 THUMB Flash Debug 160k/ldebug.o
 .text.getobjname
                0x00421964      0x20c THUMB Flash Debug 160k/ldebug.o
 .text.getfuncname
                0x00421b70      0x1d8 THUMB Flash Debug 160k/ldebug.o
 .text.isinstack
                0x00421d48       0x60 THUMB Flash Debug 160k/ldebug.o
 .text.getupvalname
                0x00421da8       0x70 THUMB Flash Debug 160k/ldebug.o
 .text.varinfo  0x00421e18       0xac THUMB Flash Debug 160k/ldebug.o
 .text.luaG_typeerror
                0x00421ec4       0x44 THUMB Flash Debug 160k/ldebug.o
                0x00421ec4                luaG_typeerror
 .text.luaG_concaterror
                0x00421f08       0x38 THUMB Flash Debug 160k/ldebug.o
                0x00421f08                luaG_concaterror
 .text.luaG_opinterror
                0x00421f40       0x50 THUMB Flash Debug 160k/ldebug.o
                0x00421f40                luaG_opinterror
 .text.luaG_tointerror
                0x00421f90       0x60 THUMB Flash Debug 160k/ldebug.o
                0x00421f90                luaG_tointerror
 .text.luaG_ordererror
                0x00421ff0       0x6c THUMB Flash Debug 160k/ldebug.o
                0x00421ff0                luaG_ordererror
 .text.addinfo  0x0042205c       0x80 THUMB Flash Debug 160k/ldebug.o
 .text.luaG_errormsg
                0x004220dc       0x78 THUMB Flash Debug 160k/ldebug.o
                0x004220dc                luaG_errormsg
 .text.luaG_runerror
                0x00422154       0x2c THUMB Flash Debug 160k/ldebug.o
                0x00422154                luaG_runerror
 .text.luaG_traceexec
                0x00422180      0x16c THUMB Flash Debug 160k/ldebug.o
                0x00422180                luaG_traceexec
 .text.seterrorobj
                0x004222ec       0x9c THUMB Flash Debug 160k/ldo.o
 .text.luaD_throw
                0x00422388       0xbc THUMB Flash Debug 160k/ldo.o
                0x00422388                luaD_throw
 .text.luaD_rawrunprotected
                0x00422444       0x64 THUMB Flash Debug 160k/ldo.o
                0x00422444                luaD_rawrunprotected
 .text.correctstack
                0x004224a8       0xd8 THUMB Flash Debug 160k/ldo.o
 .text.luaD_reallocstack
                0x00422580       0x98 THUMB Flash Debug 160k/ldo.o
                0x00422580                luaD_reallocstack
 .text.luaD_growstack
                0x00422618       0x90 THUMB Flash Debug 160k/ldo.o
                0x00422618                luaD_growstack
 .text.stackinuse
                0x004226a8       0x50 THUMB Flash Debug 160k/ldo.o
 .text.luaD_shrinkstack
                0x004226f8       0x74 THUMB Flash Debug 160k/ldo.o
                0x004226f8                luaD_shrinkstack
 .text.luaD_hook
                0x0042276c       0xf8 THUMB Flash Debug 160k/ldo.o
                0x0042276c                luaD_hook
 .text.callhook
                0x00422864       0x7c THUMB Flash Debug 160k/ldo.o
 .text.adjust_varargs
                0x004228e0       0xa8 THUMB Flash Debug 160k/ldo.o
 .text.tryfuncTM
                0x00422988       0x88 THUMB Flash Debug 160k/ldo.o
 .text.luaD_precall
                0x00422a10      0x274 THUMB Flash Debug 160k/ldo.o
                0x00422a10                luaD_precall
 .text.luaD_poscall
                0x00422c84       0xf4 THUMB Flash Debug 160k/ldo.o
                0x00422c84                luaD_poscall
 .text.luaD_call
                0x00422d78       0xb8 THUMB Flash Debug 160k/ldo.o
                0x00422d78                luaD_call
 .text.finishCcall
                0x00422e30       0x90 THUMB Flash Debug 160k/ldo.o
 .text.unroll   0x00422ec0       0x60 THUMB Flash Debug 160k/ldo.o
 .text.findpcall
                0x00422f20       0x40 THUMB Flash Debug 160k/ldo.o
 .text.recover  0x00422f60       0x7c THUMB Flash Debug 160k/ldo.o
 .text.resume_error
                0x00422fdc       0x50 THUMB Flash Debug 160k/ldo.o
 .text.resume   0x0042302c      0x104 THUMB Flash Debug 160k/ldo.o
 .text.lua_resume
                0x00423130       0xf4 THUMB Flash Debug 160k/ldo.o
                0x00423130                lua_resume
 .text.lua_isyieldable
                0x00423224       0x24 THUMB Flash Debug 160k/ldo.o
                0x00423224                lua_isyieldable
 .text.lua_yieldk
                0x00423248       0xb0 THUMB Flash Debug 160k/ldo.o
                0x00423248                lua_yieldk
 .text.luaD_pcall
                0x004232f8       0x94 THUMB Flash Debug 160k/ldo.o
                0x004232f8                luaD_pcall
 .text.checkmode
                0x0042338c       0x48 THUMB Flash Debug 160k/ldo.o
 .text.f_parser
                0x004233d4       0xc8 THUMB Flash Debug 160k/ldo.o
 .text.luaD_protectedparser
                0x0042349c      0x100 THUMB Flash Debug 160k/ldo.o
                0x0042349c                luaD_protectedparser
 .text.DumpBlock
                0x0042359c       0x38 THUMB Flash Debug 160k/ldump.o
 .text.DumpByte
                0x004235d4       0x28 THUMB Flash Debug 160k/ldump.o
 .text.DumpInt  0x004235fc       0x24 THUMB Flash Debug 160k/ldump.o
 .text.DumpNumber
                0x00423620       0x24 THUMB Flash Debug 160k/ldump.o
 .text.DumpInteger
                0x00423644       0x24 THUMB Flash Debug 160k/ldump.o
 .text.DumpString
                0x00423668       0x70 THUMB Flash Debug 160k/ldump.o
 .text.DumpCode
                0x004236d8       0x34 THUMB Flash Debug 160k/ldump.o
 .text.DumpConstants
                0x0042370c       0xfc THUMB Flash Debug 160k/ldump.o
 .text.DumpProtos
                0x00423808       0x54 THUMB Flash Debug 160k/ldump.o
 .text.DumpUpvalues
                0x0042385c       0x64 THUMB Flash Debug 160k/ldump.o
 .text.DumpDebug
                0x004238c0      0x11c THUMB Flash Debug 160k/ldump.o
 .text.DumpFunction
                0x004239dc       0xa4 THUMB Flash Debug 160k/ldump.o
 .text.DumpHeader
                0x00423a80       0xb0 THUMB Flash Debug 160k/ldump.o
 .text.luaU_dump
                0x00423b30       0x5c THUMB Flash Debug 160k/ldump.o
                0x00423b30                luaU_dump
 .text.luaF_newCclosure
                0x00423b8c       0x3c THUMB Flash Debug 160k/lfunc.o
                0x00423b8c                luaF_newCclosure
 .text.luaF_newLclosure
                0x00423bc8       0x70 THUMB Flash Debug 160k/lfunc.o
                0x00423bc8                luaF_newLclosure
 .text.luaF_initupvals
                0x00423c38       0x70 THUMB Flash Debug 160k/lfunc.o
                0x00423c38                luaF_initupvals
 .text.luaF_findupval
                0x00423ca8       0xa4 THUMB Flash Debug 160k/lfunc.o
                0x00423ca8                luaF_findupval
 .text.luaF_close
                0x00423d4c       0x94 THUMB Flash Debug 160k/lfunc.o
                0x00423d4c                luaF_close
 .text.luaF_newproto
                0x00423de0       0xc4 THUMB Flash Debug 160k/lfunc.o
                0x00423de0                luaF_newproto
 .text.luaF_freeproto
                0x00423ea4       0xc8 THUMB Flash Debug 160k/lfunc.o
                0x00423ea4                luaF_freeproto
 .text.luaF_getlocalname
                0x00423f6c       0x98 THUMB Flash Debug 160k/lfunc.o
                0x00423f6c                luaF_getlocalname
 .text.removeentry
                0x00424004       0x3c THUMB Flash Debug 160k/lgc.o
 .text.iscleared
                0x00424040       0x64 THUMB Flash Debug 160k/lgc.o
 .text.luaC_barrier_
                0x004240a4       0x54 THUMB Flash Debug 160k/lgc.o
                0x004240a4                luaC_barrier_
 .text.luaC_barrierback_
                0x004240f8       0x38 THUMB Flash Debug 160k/lgc.o
                0x004240f8                luaC_barrierback_
 .text.luaC_upvalbarrier_
                0x00424130       0x48 THUMB Flash Debug 160k/lgc.o
                0x00424130                luaC_upvalbarrier_
 .text.luaC_fix
                0x00424178       0x40 THUMB Flash Debug 160k/lgc.o
                0x00424178                luaC_fix
 .text.luaC_newobj
                0x004241b8       0x5c THUMB Flash Debug 160k/lgc.o
                0x004241b8                luaC_newobj
 .text.reallymarkobject
                0x00424214      0x1b8 THUMB Flash Debug 160k/lgc.o
 .text.markmt   0x004243cc       0x6c THUMB Flash Debug 160k/lgc.o
 .text.markbeingfnz
                0x00424438       0x40 THUMB Flash Debug 160k/lgc.o
 .text.remarkupvals
                0x00424478       0xa4 THUMB Flash Debug 160k/lgc.o
 .text.restartcollection
                0x0042451c       0x94 THUMB Flash Debug 160k/lgc.o
 .text.traverseweakvalue
                0x004245b0       0xd8 THUMB Flash Debug 160k/lgc.o
 .text.traverseephemeron
                0x00424688      0x174 THUMB Flash Debug 160k/lgc.o
 .text.traversestrongtable
                0x004247fc      0x104 THUMB Flash Debug 160k/lgc.o
 .text.traversetable
                0x00424900      0x12c THUMB Flash Debug 160k/lgc.o
 .text.traverseproto
                0x00424a2c      0x218 THUMB Flash Debug 160k/lgc.o
 .text.traverseCclosure
                0x00424c44       0x88 THUMB Flash Debug 160k/lgc.o
 .text.traverseLclosure
                0x00424ccc       0xc0 THUMB Flash Debug 160k/lgc.o
 .text.traversethread
                0x00424d8c       0xd4 THUMB Flash Debug 160k/lgc.o
 .text.propagatemark
                0x00424e60      0x170 THUMB Flash Debug 160k/lgc.o
 .text.propagateall
                0x00424fd0       0x20 THUMB Flash Debug 160k/lgc.o
 .text.convergeephemerons
                0x00424ff0       0x58 THUMB Flash Debug 160k/lgc.o
 .text.clearkeys
                0x00425048       0x80 THUMB Flash Debug 160k/lgc.o
 .text.clearvalues
                0x004250c8       0xb8 THUMB Flash Debug 160k/lgc.o
 .text.luaC_upvdeccount
                0x00425180       0x44 THUMB Flash Debug 160k/lgc.o
                0x00425180                luaC_upvdeccount
 .text.freeLclosure
                0x004251c4       0x64 THUMB Flash Debug 160k/lgc.o
 .text.freeobj  0x00425228      0x13c THUMB Flash Debug 160k/lgc.o
 .text.sweeplist
                0x00425364       0xb0 THUMB Flash Debug 160k/lgc.o
 .text.sweeptolive
                0x00425414       0x54 THUMB Flash Debug 160k/lgc.o
 .text.checkSizes
                0x00425468       0x88 THUMB Flash Debug 160k/lgc.o
 .text.udata2finalize
                0x004254f0       0x78 THUMB Flash Debug 160k/lgc.o
 .text.dothecall
                0x00425568       0x2c THUMB Flash Debug 160k/lgc.o
 .text.GCTM     0x00425594      0x160 THUMB Flash Debug 160k/lgc.o
 .text.runafewfinalizers
                0x004256f4       0x60 THUMB Flash Debug 160k/lgc.o
 .text.callallpendingfinalizers
                0x00425754       0x2c THUMB Flash Debug 160k/lgc.o
 .text.findlast
                0x00425780       0x28 THUMB Flash Debug 160k/lgc.o
 .text.separatetobefnz
                0x004257a8       0x6c THUMB Flash Debug 160k/lgc.o
 .text.luaC_checkfinalizer
                0x00425814       0xec THUMB Flash Debug 160k/lgc.o
                0x00425814                luaC_checkfinalizer
 .text.setpause
                0x00425900       0x64 THUMB Flash Debug 160k/lgc.o
 .text.entersweep
                0x00425964       0x44 THUMB Flash Debug 160k/lgc.o
 .text.luaC_freeallobjects
                0x004259a8       0x74 THUMB Flash Debug 160k/lgc.o
                0x004259a8                luaC_freeallobjects
 .text.atomic   0x00425a1c      0x160 THUMB Flash Debug 160k/lgc.o
 .text.sweepstep
                0x00425b7c       0x70 THUMB Flash Debug 160k/lgc.o
 .text.singlestep
                0x00425bec      0x194 THUMB Flash Debug 160k/lgc.o
 .text.luaC_runtilstate
                0x00425d80       0x34 THUMB Flash Debug 160k/lgc.o
                0x00425d80                luaC_runtilstate
 .text.getdebt  0x00425db4       0x64 THUMB Flash Debug 160k/lgc.o
 .text.luaC_step
                0x00425e18       0x9c THUMB Flash Debug 160k/lgc.o
                0x00425e18                luaC_step
 .text.luaC_fullgc
                0x00425eb4       0x70 THUMB Flash Debug 160k/lgc.o
                0x00425eb4                luaC_fullgc
 .text.luaL_openlibs
                0x00425f24       0x4c THUMB Flash Debug 160k/linit.o
                0x00425f24                luaL_openlibs
 .text.io_type  0x00425f70       0x74 THUMB Flash Debug 160k/liolib.o
 .text.f_tostring
                0x00425fe4       0x5c THUMB Flash Debug 160k/liolib.o
 .text.tofile   0x00426040       0x44 THUMB Flash Debug 160k/liolib.o
 .text.newprefile
                0x00426084       0x38 THUMB Flash Debug 160k/liolib.o
 .text.aux_close
                0x004260bc       0x40 THUMB Flash Debug 160k/liolib.o
 .text.io_close
                0x004260fc       0x48 THUMB Flash Debug 160k/liolib.o
 .text.f_gc     0x00426144       0x44 THUMB Flash Debug 160k/liolib.o
 .text.io_fclose
                0x00426188       0x50 THUMB Flash Debug 160k/liolib.o
 .text.newfile  0x004261d8       0x34 THUMB Flash Debug 160k/liolib.o
 .text.opencheck
                0x0042620c       0x54 THUMB Flash Debug 160k/liolib.o
 .text.io_open  0x00426260       0xec THUMB Flash Debug 160k/liolib.o
 .text.io_pclose
                0x0042634c       0x34 THUMB Flash Debug 160k/liolib.o
 .text.io_popen
                0x00426380       0x88 THUMB Flash Debug 160k/liolib.o
 .text.io_tmpfile
                0x00426408       0x44 THUMB Flash Debug 160k/liolib.o
 .text.getiofile
                0x0042644c       0x54 THUMB Flash Debug 160k/liolib.o
 .text.g_iofile
                0x004264a0       0x80 THUMB Flash Debug 160k/liolib.o
 .text.io_input
                0x00426520       0x2c THUMB Flash Debug 160k/liolib.o
 .text.io_output
                0x0042654c       0x2c THUMB Flash Debug 160k/liolib.o
 .text.aux_lines
                0x00426578       0x5c THUMB Flash Debug 160k/liolib.o
 .text.f_lines  0x004265d4       0x28 THUMB Flash Debug 160k/liolib.o
 .text.io_lines
                0x004265fc       0xc4 THUMB Flash Debug 160k/liolib.o
 .text.nextc    0x004266c0       0x54 THUMB Flash Debug 160k/liolib.o
 .text.test2    0x00426714       0x48 THUMB Flash Debug 160k/liolib.o
 .text.readdigits
                0x0042675c       0x5c THUMB Flash Debug 160k/liolib.o
 .text.read_number
                0x004267b8      0x190 THUMB Flash Debug 160k/liolib.o
 .text.test_eof
                0x00426948       0x40 THUMB Flash Debug 160k/liolib.o
 .text.read_line
                0x00426988      0x20c THUMB Flash Debug 160k/liolib.o
 .text.read_all
                0x00426b94       0xbc THUMB Flash Debug 160k/liolib.o
 .text.read_chars
                0x00426c50       0xd0 THUMB Flash Debug 160k/liolib.o
 .text.g_read   0x00426d20      0x224 THUMB Flash Debug 160k/liolib.o
 .text.io_read  0x00426f44       0x30 THUMB Flash Debug 160k/liolib.o
 .text.f_read   0x00426f74       0x28 THUMB Flash Debug 160k/liolib.o
 .text.io_readline
                0x00426f9c      0x128 THUMB Flash Debug 160k/liolib.o
 .text.g_write  0x004270c4      0x11c THUMB Flash Debug 160k/liolib.o
 .text.io_write
                0x004271e0       0x30 THUMB Flash Debug 160k/liolib.o
 .text.f_write  0x00427210       0x34 THUMB Flash Debug 160k/liolib.o
 .text.f_seek   0x00427244       0xd8 THUMB Flash Debug 160k/liolib.o
 .text.f_setvbuf
                0x0042731c       0x88 THUMB Flash Debug 160k/liolib.o
 .text.io_flush
                0x004273a4       0x40 THUMB Flash Debug 160k/liolib.o
 .text.f_flush  0x004273e4       0x38 THUMB Flash Debug 160k/liolib.o
 .text.createmeta
                0x0042741c       0x58 THUMB Flash Debug 160k/liolib.o
 .text.io_noclose
                0x00427474       0x50 THUMB Flash Debug 160k/liolib.o
 .text.createstdfile
                0x004274c4       0x60 THUMB Flash Debug 160k/liolib.o
 *fill*         0x00427524        0x4 00
 .text.luaopen_io
                0x00427528       0xb8 THUMB Flash Debug 160k/liolib.o
                0x00427528                luaopen_io
 .text.save     0x004275e0       0x90 THUMB Flash Debug 160k/llex.o
 .text.luaX_init
                0x00427670       0x74 THUMB Flash Debug 160k/llex.o
                0x00427670                luaX_init
 .text.luaX_token2str
                0x004276e4       0x70 THUMB Flash Debug 160k/llex.o
                0x004276e4                luaX_token2str
 .text.txtToken
                0x00427754       0x50 THUMB Flash Debug 160k/llex.o
 .text.lexerror
                0x004277a4       0x78 THUMB Flash Debug 160k/llex.o
 .text.luaX_syntaxerror
                0x0042781c       0x18 THUMB Flash Debug 160k/llex.o
                0x0042781c                luaX_syntaxerror
 .text.luaX_newstring
                0x00427834       0xb4 THUMB Flash Debug 160k/llex.o
                0x00427834                luaX_newstring
 .text.inclinenumber
                0x004278e8       0xd0 THUMB Flash Debug 160k/llex.o
 .text.luaX_setinput
                0x004279b8       0xa4 THUMB Flash Debug 160k/llex.o
                0x004279b8                luaX_setinput
 .text.check_next1
                0x00427a5c       0x64 THUMB Flash Debug 160k/llex.o
 .text.check_next2
                0x00427ac0       0x80 THUMB Flash Debug 160k/llex.o
 .text.buffreplace
                0x00427b40       0x64 THUMB Flash Debug 160k/llex.o
 .text.trydecpoint
                0x00427ba4       0x74 THUMB Flash Debug 160k/llex.o
 .text.read_numeral
                0x00427c18      0x1c4 THUMB Flash Debug 160k/llex.o
 .text.skip_sep
                0x00427ddc       0xd0 THUMB Flash Debug 160k/llex.o
 .text.read_long_string
                0x00427eac      0x21c THUMB Flash Debug 160k/llex.o
 .text.esccheck
                0x004280c8       0x78 THUMB Flash Debug 160k/llex.o
 .text.gethexa  0x00428140       0x8c THUMB Flash Debug 160k/llex.o
 .text.readhexaesc
                0x004281cc       0x40 THUMB Flash Debug 160k/llex.o
 .text.readutf8esc
                0x0042820c      0x190 THUMB Flash Debug 160k/llex.o
 .text.utf8esc  0x0042839c       0x50 THUMB Flash Debug 160k/llex.o
 .text.readdecesc
                0x004283ec       0xd8 THUMB Flash Debug 160k/llex.o
 .text.read_string
                0x004284c4      0x54c THUMB Flash Debug 160k/llex.o
 .text.llex     0x00428a10      0x7c8 THUMB Flash Debug 160k/llex.o
 .text.luaX_next
                0x004291d8       0x54 THUMB Flash Debug 160k/llex.o
                0x004291d8                luaX_next
 .text.luaX_lookahead
                0x0042922c       0x2c THUMB Flash Debug 160k/llex.o
                0x0042922c                luaX_lookahead
 .text.math_abs
                0x00429258       0x84 THUMB Flash Debug 160k/lmathlib.o
 .text.math_sin
                0x004292dc       0x38 THUMB Flash Debug 160k/lmathlib.o
 .text.math_cos
                0x00429314       0x38 THUMB Flash Debug 160k/lmathlib.o
 .text.math_tan
                0x0042934c       0x38 THUMB Flash Debug 160k/lmathlib.o
 .text.math_asin
                0x00429384       0x38 THUMB Flash Debug 160k/lmathlib.o
 .text.math_acos
                0x004293bc       0x38 THUMB Flash Debug 160k/lmathlib.o
 .text.math_atan
                0x004293f4       0x5c THUMB Flash Debug 160k/lmathlib.o
 .text.math_toint
                0x00429450       0x50 THUMB Flash Debug 160k/lmathlib.o
 .text.pushnumint
                0x004294a0       0x94 THUMB Flash Debug 160k/lmathlib.o
 .text.math_floor
                0x00429534       0x5c THUMB Flash Debug 160k/lmathlib.o
 .text.math_ceil
                0x00429590       0x5c THUMB Flash Debug 160k/lmathlib.o
 .text.math_fmod
                0x004295ec       0xf4 THUMB Flash Debug 160k/lmathlib.o
 .text.math_modf
                0x004296e0       0xd4 THUMB Flash Debug 160k/lmathlib.o
 .text.math_sqrt
                0x004297b4       0x38 THUMB Flash Debug 160k/lmathlib.o
 .text.math_ult
                0x004297ec       0x58 THUMB Flash Debug 160k/lmathlib.o
 .text.math_log
                0x00429844       0xbc THUMB Flash Debug 160k/lmathlib.o
 .text.math_exp
                0x00429900       0x38 THUMB Flash Debug 160k/lmathlib.o
 .text.math_deg
                0x00429938       0x48 THUMB Flash Debug 160k/lmathlib.o
 .text.math_rad
                0x00429980       0x48 THUMB Flash Debug 160k/lmathlib.o
 .text.math_min
                0x004299c8       0x7c THUMB Flash Debug 160k/lmathlib.o
 .text.math_max
                0x00429a44       0x7c THUMB Flash Debug 160k/lmathlib.o
 .text.math_random
                0x00429ac0      0x17c THUMB Flash Debug 160k/lmathlib.o
 .text.math_randomseed
                0x00429c3c       0x3c THUMB Flash Debug 160k/lmathlib.o
 .text.math_type
                0x00429c78       0x70 THUMB Flash Debug 160k/lmathlib.o
 .text.luaopen_math
                0x00429ce8       0xe0 THUMB Flash Debug 160k/lmathlib.o
                0x00429ce8                luaopen_math
 .text.luaM_growaux_
                0x00429dc8       0xa4 THUMB Flash Debug 160k/lmem.o
                0x00429dc8                luaM_growaux_
 .text.luaM_toobig
                0x00429e6c       0x18 THUMB Flash Debug 160k/lmem.o
                0x00429e6c                luaM_toobig
 .text.luaM_realloc_
                0x00429e84       0x98 THUMB Flash Debug 160k/lmem.o
                0x00429e84                luaM_realloc_
 .text.lsys_unloadlib
                0x00429f1c       0x14 THUMB Flash Debug 160k/loadlib.o
 .text.lsys_load
                0x00429f30       0x2c THUMB Flash Debug 160k/loadlib.o
 .text.lsys_sym
                0x00429f5c       0x2c THUMB Flash Debug 160k/loadlib.o
 .text.checkclib
                0x00429f88       0x50 THUMB Flash Debug 160k/loadlib.o
 .text.addtoclib
                0x00429fd8       0x74 THUMB Flash Debug 160k/loadlib.o
 .text.gctm     0x0042a04c       0x80 THUMB Flash Debug 160k/loadlib.o
 .text.lookforfunc
                0x0042a0cc       0x9c THUMB Flash Debug 160k/loadlib.o
 .text.ll_loadlib
                0x0042a168       0x88 THUMB Flash Debug 160k/loadlib.o
 .text.readable
                0x0042a1f0       0x3c THUMB Flash Debug 160k/loadlib.o
 .text.pushnexttemplate
                0x0042a22c       0x70 THUMB Flash Debug 160k/loadlib.o
 .text.searchpath
                0x0042a29c      0x1c4 THUMB Flash Debug 160k/loadlib.o
 .text.ll_searchpath
                0x0042a460       0x98 THUMB Flash Debug 160k/loadlib.o
 .text.findfile
                0x0042a4f8       0x64 THUMB Flash Debug 160k/loadlib.o
 .text.checkload
                0x0042a55c       0x60 THUMB Flash Debug 160k/loadlib.o
 .text.searcher_Lua
                0x0042a5bc       0x70 THUMB Flash Debug 160k/loadlib.o
 .text.loadfunc
                0x0042a62c       0xb0 THUMB Flash Debug 160k/loadlib.o
 .text.searcher_C
                0x0042a6dc       0x6c THUMB Flash Debug 160k/loadlib.o
 .text.searcher_Croot
                0x0042a748       0xd4 THUMB Flash Debug 160k/loadlib.o
 .text.searcher_preload
                0x0042a81c       0x60 THUMB Flash Debug 160k/loadlib.o
 .text.findloader
                0x0042a87c      0x1b0 THUMB Flash Debug 160k/loadlib.o
 .text.ll_require
                0x0042aa2c       0xf8 THUMB Flash Debug 160k/loadlib.o
 .text.noenv    0x0042ab24       0x44 THUMB Flash Debug 160k/loadlib.o
 .text.setpath  0x0042ab68       0xa0 THUMB Flash Debug 160k/loadlib.o
 .text.createsearcherstable
                0x0042ac08       0x8c THUMB Flash Debug 160k/loadlib.o
 .text.createclibstable
                0x0042ac94       0x70 THUMB Flash Debug 160k/loadlib.o
 *fill*         0x0042ad04        0x4 00
 .text.luaopen_package
                0x0042ad08      0x160 THUMB Flash Debug 160k/loadlib.o
                0x0042ad08                luaopen_package
 .text.luaO_int2fb
                0x0042ae68       0x50 THUMB Flash Debug 160k/lobject.o
                0x0042ae68                luaO_int2fb
 .text.luaO_fb2int
                0x0042aeb8       0x40 THUMB Flash Debug 160k/lobject.o
                0x0042aeb8                luaO_fb2int
 .text.luaO_ceillog2
                0x0042aef8       0x50 THUMB Flash Debug 160k/lobject.o
                0x0042aef8                luaO_ceillog2
 .text.intarith
                0x0042af48      0x150 THUMB Flash Debug 160k/lobject.o
 .text.numarith
                0x0042b098      0x160 THUMB Flash Debug 160k/lobject.o
 .text.luaO_arith
                0x0042b1f8      0x200 THUMB Flash Debug 160k/lobject.o
                0x0042b1f8                luaO_arith
 .text.luaO_hexavalue
                0x0042b3f8       0x40 THUMB Flash Debug 160k/lobject.o
                0x0042b3f8                luaO_hexavalue
 .text.isneg    0x0042b438       0x4c THUMB Flash Debug 160k/lobject.o
 .text.l_str2d  0x0042b484       0xb4 THUMB Flash Debug 160k/lobject.o
 .text.l_str2int
                0x0042b538      0x1a8 THUMB Flash Debug 160k/lobject.o
 .text.luaO_str2num
                0x0042b6e0       0x80 THUMB Flash Debug 160k/lobject.o
                0x0042b6e0                luaO_str2num
 .text.luaO_utf8esc
                0x0042b760       0x98 THUMB Flash Debug 160k/lobject.o
                0x0042b760                luaO_utf8esc
 .text.luaO_tostring
                0x0042b7f8       0xd0 THUMB Flash Debug 160k/lobject.o
                0x0042b7f8                luaO_tostring
 .text.pushstr  0x0042b8c8       0x48 THUMB Flash Debug 160k/lobject.o
 .text.luaO_pushvfstring
                0x0042b910      0x3ec THUMB Flash Debug 160k/lobject.o
                0x0042b910                luaO_pushvfstring
 .text.luaO_pushfstring
                0x0042bcfc       0x30 THUMB Flash Debug 160k/lobject.o
                0x0042bcfc                luaO_pushfstring
 .text.luaO_chunkid
                0x0042bd2c      0x174 THUMB Flash Debug 160k/lobject.o
                0x0042bd2c                luaO_chunkid
 .text.os_execute
                0x0042bea0       0x50 THUMB Flash Debug 160k/loslib.o
 .text.os_remove
                0x0042bef0       0x40 THUMB Flash Debug 160k/loslib.o
 .text.os_rename
                0x0042bf30       0x58 THUMB Flash Debug 160k/loslib.o
 .text.os_tmpname
                0x0042bf88       0x60 THUMB Flash Debug 160k/loslib.o
 .text.os_getenv
                0x0042bfe8       0x38 THUMB Flash Debug 160k/loslib.o
 .text.os_clock
                0x0042c020       0x44 THUMB Flash Debug 160k/loslib.o
 .text.setfield
                0x0042c064       0x30 THUMB Flash Debug 160k/loslib.o
 .text.setboolfield
                0x0042c094       0x34 THUMB Flash Debug 160k/loslib.o
 .text.getboolfield
                0x0042c0c8       0x48 THUMB Flash Debug 160k/loslib.o
 .text.getfield
                0x0042c110       0x6c THUMB Flash Debug 160k/loslib.o
 .text.checkoption
                0x0042c17c      0x100 THUMB Flash Debug 160k/loslib.o
 .text.os_date  0x0042c27c      0x3f0 THUMB Flash Debug 160k/loslib.o
 .text.os_time  0x0042c66c      0x11c THUMB Flash Debug 160k/loslib.o
 .text.os_difftime
                0x0042c788       0x50 THUMB Flash Debug 160k/loslib.o
 .text.os_setlocale
                0x0042c7d8       0x6c THUMB Flash Debug 160k/loslib.o
 .text.os_exit  0x0042c844       0x7c THUMB Flash Debug 160k/loslib.o
 .text.luaopen_os
                0x0042c8c0       0x50 THUMB Flash Debug 160k/loslib.o
                0x0042c8c0                luaopen_os
 .text.semerror
                0x0042c910       0x1c THUMB Flash Debug 160k/lparser.o
 .text.error_expected
                0x0042c92c       0x34 THUMB Flash Debug 160k/lparser.o
 .text.errorlimit
                0x0042c960       0x68 THUMB Flash Debug 160k/lparser.o
 .text.checklimit
                0x0042c9c8       0x28 THUMB Flash Debug 160k/lparser.o
 .text.testnext
                0x0042c9f0       0x30 THUMB Flash Debug 160k/lparser.o
 .text.check    0x0042ca20       0x24 THUMB Flash Debug 160k/lparser.o
 .text.checknext
                0x0042ca44       0x20 THUMB Flash Debug 160k/lparser.o
 .text.check_match
                0x0042ca64       0x6c THUMB Flash Debug 160k/lparser.o
 .text.str_checkname
                0x0042cad0       0x2c THUMB Flash Debug 160k/lparser.o
 .text.init_exp
                0x0042cafc       0x34 THUMB Flash Debug 160k/lparser.o
 .text.codestring
                0x0042cb30       0x30 THUMB Flash Debug 160k/lparser.o
 .text.checkname
                0x0042cb60       0x24 THUMB Flash Debug 160k/lparser.o
 .text.registerlocalvar
                0x0042cb84       0xf0 THUMB Flash Debug 160k/lparser.o
 .text.new_localvar
                0x0042cc74       0xa8 THUMB Flash Debug 160k/lparser.o
 .text.new_localvarliteral_
                0x0042cd1c       0x28 THUMB Flash Debug 160k/lparser.o
 .text.getlocvar
                0x0042cd44       0x48 THUMB Flash Debug 160k/lparser.o
 .text.adjustlocalvars
                0x0042cd8c       0x58 THUMB Flash Debug 160k/lparser.o
 .text.removevars
                0x0042cde4       0x68 THUMB Flash Debug 160k/lparser.o
 .text.searchupvalue
                0x0042ce4c       0x58 THUMB Flash Debug 160k/lparser.o
 .text.newupvalue
                0x0042cea4      0x138 THUMB Flash Debug 160k/lparser.o
 .text.searchvar
                0x0042cfdc       0x4c THUMB Flash Debug 160k/lparser.o
 .text.markupval
                0x0042d028       0x38 THUMB Flash Debug 160k/lparser.o
 .text.singlevaraux
                0x0042d060       0xa4 THUMB Flash Debug 160k/lparser.o
 .text.singlevar
                0x0042d104       0x64 THUMB Flash Debug 160k/lparser.o
 .text.adjust_assign
                0x0042d168       0x98 THUMB Flash Debug 160k/lparser.o
 .text.enterlevel
                0x0042d200       0x48 THUMB Flash Debug 160k/lparser.o
 .text.closegoto
                0x0042d248       0xe0 THUMB Flash Debug 160k/lparser.o
 .text.findlabel
                0x0042d328       0xb0 THUMB Flash Debug 160k/lparser.o
 .text.newlabelentry
                0x0042d3d8       0xac THUMB Flash Debug 160k/lparser.o
 .text.findgotos
                0x0042d484       0x5c THUMB Flash Debug 160k/lparser.o
 .text.movegotosout
                0x0042d4e0       0x88 THUMB Flash Debug 160k/lparser.o
 .text.enterblock
                0x0042d568       0x58 THUMB Flash Debug 160k/lparser.o
 .text.breaklabel
                0x0042d5c0       0x60 THUMB Flash Debug 160k/lparser.o
 .text.undefgoto
                0x0042d620       0x58 THUMB Flash Debug 160k/lparser.o
 .text.leaveblock
                0x0042d678       0xbc THUMB Flash Debug 160k/lparser.o
 .text.addprototype
                0x0042d734       0xec THUMB Flash Debug 160k/lparser.o
 .text.codeclosure
                0x0042d820       0x48 THUMB Flash Debug 160k/lparser.o
 .text.open_func
                0x0042d868       0xac THUMB Flash Debug 160k/lparser.o
 .text.close_func
                0x0042d914      0x1b8 THUMB Flash Debug 160k/lparser.o
 .text.block_follow
                0x0042dacc       0xb0 THUMB Flash Debug 160k/lparser.o
 .text.statlist
                0x0042db7c       0x3c THUMB Flash Debug 160k/lparser.o
 .text.fieldsel
                0x0042dbb8       0x40 THUMB Flash Debug 160k/lparser.o
 .text.yindex   0x0042dbf8       0x38 THUMB Flash Debug 160k/lparser.o
 .text.recfield
                0x0042dc30       0xc0 THUMB Flash Debug 160k/lparser.o
 .text.closelistfield
                0x0042dcf0       0x54 THUMB Flash Debug 160k/lparser.o
 .text.lastlistfield
                0x0042dd44       0x88 THUMB Flash Debug 160k/lparser.o
 .text.listfield
                0x0042ddcc       0x50 THUMB Flash Debug 160k/lparser.o
 .text.field    0x0042de1c       0x54 THUMB Flash Debug 160k/lparser.o
 .text.constructor
                0x0042de70      0x15c THUMB Flash Debug 160k/lparser.o
 .text.parlist  0x0042dfcc       0xb4 THUMB Flash Debug 160k/lparser.o
 .text.body     0x0042e080       0xa0 THUMB Flash Debug 160k/lparser.o
 .text.explist  0x0042e120       0x54 THUMB Flash Debug 160k/lparser.o
 .text.funcargs
                0x0042e174      0x124 THUMB Flash Debug 160k/lparser.o
 .text.primaryexp
                0x0042e298       0x70 THUMB Flash Debug 160k/lparser.o
 .text.suffixedexp
                0x0042e308       0xc0 THUMB Flash Debug 160k/lparser.o
 .text.simpleexp
                0x0042e3c8      0x160 THUMB Flash Debug 160k/lparser.o
 .text.getunopr
                0x0042e528       0x4c THUMB Flash Debug 160k/lparser.o
 .text.getbinopr
                0x0042e574      0x140 THUMB Flash Debug 160k/lparser.o
 .text.subexpr  0x0042e6b4      0x11c THUMB Flash Debug 160k/lparser.o
 .text.expr     0x0042e7d0       0x20 THUMB Flash Debug 160k/lparser.o
 .text.block    0x0042e7f0       0x34 THUMB Flash Debug 160k/lparser.o
 .text.check_conflict
                0x0042e824       0xcc THUMB Flash Debug 160k/lparser.o
 .text.assignment
                0x0042e8f0      0x164 THUMB Flash Debug 160k/lparser.o
 .text.cond     0x0042ea54       0x3c THUMB Flash Debug 160k/lparser.o
 .text.gotostat
                0x0042ea90       0x74 THUMB Flash Debug 160k/lparser.o
 .text.checkrepeated
                0x0042eb04       0x7c THUMB Flash Debug 160k/lparser.o
 .text.skipnoopstat
                0x0042eb80       0x2c THUMB Flash Debug 160k/lparser.o
 .text.labelstat
                0x0042ebac       0x8c THUMB Flash Debug 160k/lparser.o
 .text.whilestat
                0x0042ec38       0x84 THUMB Flash Debug 160k/lparser.o
 .text.repeatstat
                0x0042ecbc       0x90 THUMB Flash Debug 160k/lparser.o
 .text.exp1     0x0042ed4c       0x34 THUMB Flash Debug 160k/lparser.o
 .text.forbody  0x0042ed80      0x100 THUMB Flash Debug 160k/lparser.o
 .text.fornum   0x0042ee80       0xd8 THUMB Flash Debug 160k/lparser.o
 .text.forlist  0x0042ef58       0xdc THUMB Flash Debug 160k/lparser.o
 .text.forstat  0x0042f034       0x88 THUMB Flash Debug 160k/lparser.o
 .text.test_then_block
                0x0042f0bc       0xfc THUMB Flash Debug 160k/lparser.o
 .text.ifstat   0x0042f1b8       0x74 THUMB Flash Debug 160k/lparser.o
 .text.localfunc
                0x0042f22c       0x58 THUMB Flash Debug 160k/lparser.o
 .text.localstat
                0x0042f284       0x84 THUMB Flash Debug 160k/lparser.o
 .text.funcname
                0x0042f308       0x4c THUMB Flash Debug 160k/lparser.o
 .text.funcstat
                0x0042f354       0x5c THUMB Flash Debug 160k/lparser.o
 .text.exprstat
                0x0042f3b0       0x90 THUMB Flash Debug 160k/lparser.o
 .text.retstat  0x0042f440       0xec THUMB Flash Debug 160k/lparser.o
 .text.statement
                0x0042f52c      0x178 THUMB Flash Debug 160k/lparser.o
 .text.mainfunc
                0x0042f6a4       0x6c THUMB Flash Debug 160k/lparser.o
 .text.luaY_parser
                0x0042f710      0x148 THUMB Flash Debug 160k/lparser.o
                0x0042f710                luaY_parser
 .text.makeseed
                0x0042f858       0xd8 THUMB Flash Debug 160k/lstate.o
 .text.luaE_setdebt
                0x0042f930       0x2c THUMB Flash Debug 160k/lstate.o
                0x0042f930                luaE_setdebt
 .text.luaE_extendCI
                0x0042f95c       0x44 THUMB Flash Debug 160k/lstate.o
                0x0042f95c                luaE_extendCI
 .text.luaE_freeCI
                0x0042f9a0       0x48 THUMB Flash Debug 160k/lstate.o
                0x0042f9a0                luaE_freeCI
 .text.luaE_shrinkCI
                0x0042f9e8       0x58 THUMB Flash Debug 160k/lstate.o
                0x0042f9e8                luaE_shrinkCI
 .text.stack_init
                0x0042fa40       0xc8 THUMB Flash Debug 160k/lstate.o
 .text.freestack
                0x0042fb08       0x48 THUMB Flash Debug 160k/lstate.o
 .text.init_registry
                0x0042fb50       0xa8 THUMB Flash Debug 160k/lstate.o
 .text.f_luaopen
                0x0042fbf8       0x80 THUMB Flash Debug 160k/lstate.o
 .text.preinit_thread
                0x0042fc78       0x98 THUMB Flash Debug 160k/lstate.o
 .text.close_state
                0x0042fd10       0x8c THUMB Flash Debug 160k/lstate.o
 .text.lua_newthread
                0x0042fd9c       0xe0 THUMB Flash Debug 160k/lstate.o
                0x0042fd9c                lua_newthread
 .text.luaE_freethread
                0x0042fe7c       0x3c THUMB Flash Debug 160k/lstate.o
                0x0042fe7c                luaE_freethread
 .text.lua_newstate
                0x0042feb8      0x1d4 THUMB Flash Debug 160k/lstate.o
                0x0042feb8                lua_newstate
 .text.lua_close
                0x0043008c       0x20 THUMB Flash Debug 160k/lstate.o
                0x0043008c                lua_close
 .text.luaS_eqlngstr
                0x004300ac       0x54 THUMB Flash Debug 160k/lstring.o
                0x004300ac                luaS_eqlngstr
 .text.luaS_hash
                0x00430100       0x68 THUMB Flash Debug 160k/lstring.o
                0x00430100                luaS_hash
 .text.luaS_resize
                0x00430168      0x144 THUMB Flash Debug 160k/lstring.o
                0x00430168                luaS_resize
 .text.createstrobj
                0x004302ac       0x68 THUMB Flash Debug 160k/lstring.o
 .text.luaS_remove
                0x00430314       0x64 THUMB Flash Debug 160k/lstring.o
                0x00430314                luaS_remove
 .text.internshrstr
                0x00430378      0x120 THUMB Flash Debug 160k/lstring.o
 .text.luaS_newlstr
                0x00430498       0x54 THUMB Flash Debug 160k/lstring.o
                0x00430498                luaS_newlstr
 .text.luaS_new
                0x004304ec       0x28 THUMB Flash Debug 160k/lstring.o
                0x004304ec                luaS_new
 .text.luaS_newudata
                0x00430514       0x70 THUMB Flash Debug 160k/lstring.o
                0x00430514                luaS_newudata
 .text.str_len  0x00430584       0x34 THUMB Flash Debug 160k/lstrlib.o
 .text.posrelat
                0x004305b8       0x64 THUMB Flash Debug 160k/lstrlib.o
 .text.str_sub  0x0043061c       0xf8 THUMB Flash Debug 160k/lstrlib.o
 .text.str_reverse
                0x00430714      0x104 THUMB Flash Debug 160k/lstrlib.o
 .text.str_lower
                0x00430818       0xfc THUMB Flash Debug 160k/lstrlib.o
 .text.str_upper
                0x00430914       0xfc THUMB Flash Debug 160k/lstrlib.o
 .text.str_rep  0x00430a10      0x2e4 THUMB Flash Debug 160k/lstrlib.o
 .text.str_byte
                0x00430cf4      0x150 THUMB Flash Debug 160k/lstrlib.o
 .text.str_char
                0x00430e44      0x170 THUMB Flash Debug 160k/lstrlib.o
 .text.writer   0x00430fb4       0x28 THUMB Flash Debug 160k/lstrlib.o
 .text.str_dump
                0x00430fdc       0xdc THUMB Flash Debug 160k/lstrlib.o
 .text.check_capture
                0x004310b8       0x64 THUMB Flash Debug 160k/lstrlib.o
 .text.capture_to_close
                0x0043111c       0x60 THUMB Flash Debug 160k/lstrlib.o
 .text.classend
                0x0043117c       0xb8 THUMB Flash Debug 160k/lstrlib.o
 .text.match_class
                0x00431234      0x140 THUMB Flash Debug 160k/lstrlib.o
 .text.matchbracketclass
                0x00431374       0xcc THUMB Flash Debug 160k/lstrlib.o
 .text.singlematch
                0x00431440       0x80 THUMB Flash Debug 160k/lstrlib.o
 .text.matchbalance
                0x004314c0       0xac THUMB Flash Debug 160k/lstrlib.o
 .text.max_expand
                0x0043156c       0x78 THUMB Flash Debug 160k/lstrlib.o
 .text.min_expand
                0x004315e4       0x58 THUMB Flash Debug 160k/lstrlib.o
 .text.start_capture
                0x0043163c       0x84 THUMB Flash Debug 160k/lstrlib.o
 .text.end_capture
                0x004316c0       0x6c THUMB Flash Debug 160k/lstrlib.o
 .text.match_capture
                0x0043172c       0x70 THUMB Flash Debug 160k/lstrlib.o
 .text.match    0x0043179c      0x320 THUMB Flash Debug 160k/lstrlib.o
 .text.lmemfind
                0x00431abc       0x9c THUMB Flash Debug 160k/lstrlib.o
 .text.push_onecapture
                0x00431b58       0xd4 THUMB Flash Debug 160k/lstrlib.o
 .text.push_captures
                0x00431c2c       0x6c THUMB Flash Debug 160k/lstrlib.o
 .text.nospecials
                0x00431c98       0x60 THUMB Flash Debug 160k/lstrlib.o
 .text.str_find_aux
                0x00431cf8      0x2f4 THUMB Flash Debug 160k/lstrlib.o
 .text.str_find
                0x00431fec       0x20 THUMB Flash Debug 160k/lstrlib.o
 .text.str_match
                0x0043200c       0x20 THUMB Flash Debug 160k/lstrlib.o
 .text.gmatch_aux
                0x0043202c      0x190 THUMB Flash Debug 160k/lstrlib.o
 .text.gmatch   0x004321bc       0x5c THUMB Flash Debug 160k/lstrlib.o
 .text.add_s    0x00432218      0x164 THUMB Flash Debug 160k/lstrlib.o
 .text.add_value
                0x0043237c       0xe8 THUMB Flash Debug 160k/lstrlib.o
 .text.str_gsub
                0x00432464      0x430 THUMB Flash Debug 160k/lstrlib.o
 .text.addquoted
                0x00432894      0x1c8 THUMB Flash Debug 160k/lstrlib.o
 .text.scanformat
                0x00432a5c      0x128 THUMB Flash Debug 160k/lstrlib.o
 .text.addlenmod
                0x00432b84       0x68 THUMB Flash Debug 160k/lstrlib.o
 .text.str_format
                0x00432bec      0x5f0 THUMB Flash Debug 160k/lstrlib.o
 .text.digit    0x004331dc       0x2c THUMB Flash Debug 160k/lstrlib.o
 .text.getnum   0x00433208       0x78 THUMB Flash Debug 160k/lstrlib.o
 .text.getnumlimit
                0x00433280       0x48 THUMB Flash Debug 160k/lstrlib.o
 .text.initheader
                0x004332c8       0x34 THUMB Flash Debug 160k/lstrlib.o
 .text.getoption
                0x004332fc      0x340 THUMB Flash Debug 160k/lstrlib.o
 .text.getdetails
                0x0043363c       0xd4 THUMB Flash Debug 160k/lstrlib.o
 .text.packint  0x00433710       0xd8 THUMB Flash Debug 160k/lstrlib.o
 .text.copywithendian
                0x004337e8       0xa0 THUMB Flash Debug 160k/lstrlib.o
 .text.str_pack
                0x00433888      0x824 THUMB Flash Debug 160k/lstrlib.o
 .text.str_packsize
                0x004340ac       0xd0 THUMB Flash Debug 160k/lstrlib.o
 .text.unpackint
                0x0043417c      0x170 THUMB Flash Debug 160k/lstrlib.o
 .text.str_unpack
                0x004342ec      0x2ac THUMB Flash Debug 160k/lstrlib.o
 .text.createmetatable
                0x00434598       0x74 THUMB Flash Debug 160k/lstrlib.o
 *fill*         0x0043460c        0x4 00
 .text.luaopen_string
                0x00434610       0x58 THUMB Flash Debug 160k/lstrlib.o
                0x00434610                luaopen_string
 .text.numisinteger
                0x00434668       0xb0 THUMB Flash Debug 160k/ltable.o
 .text.hashfloat
                0x00434718       0xa8 THUMB Flash Debug 160k/ltable.o
 .text.mainposition
                0x004347c0      0x1e0 THUMB Flash Debug 160k/ltable.o
 .text.arrayindex
                0x004349a0       0x58 THUMB Flash Debug 160k/ltable.o
 .text.findindex
                0x004349f8       0xd4 THUMB Flash Debug 160k/ltable.o
 .text.luaH_next
                0x00434acc      0x10c THUMB Flash Debug 160k/ltable.o
                0x00434acc                luaH_next
 .text.computesizes
                0x00434bd8       0xa0 THUMB Flash Debug 160k/ltable.o
 .text.countint
                0x00434c78       0x48 THUMB Flash Debug 160k/ltable.o
 .text.numusearray
                0x00434cc0       0xc0 THUMB Flash Debug 160k/ltable.o
 .text.numusehash
                0x00434d80       0x8c THUMB Flash Debug 160k/ltable.o
 .text.setarrayvector
                0x00434e0c       0x78 THUMB Flash Debug 160k/ltable.o
 .text.setnodevector
                0x00434e84       0xdc THUMB Flash Debug 160k/ltable.o
 .text.luaH_resize
                0x00434f60      0x148 THUMB Flash Debug 160k/ltable.o
                0x00434f60                luaH_resize
 .text.luaH_resizearray
                0x004350a8       0x44 THUMB Flash Debug 160k/ltable.o
                0x004350a8                luaH_resizearray
 .text.rehash   0x004350ec       0xd4 THUMB Flash Debug 160k/ltable.o
 .text.luaH_new
                0x004351c0       0x58 THUMB Flash Debug 160k/ltable.o
                0x004351c0                luaH_new
 .text.luaH_free
                0x00435218       0x6c THUMB Flash Debug 160k/ltable.o
                0x00435218                luaH_free
 .text.getfreepos
                0x00435284       0x48 THUMB Flash Debug 160k/ltable.o
 .text.luaH_newkey
                0x004352cc      0x208 THUMB Flash Debug 160k/ltable.o
                0x004352cc                luaH_newkey
 .text.luaH_getint
                0x004354d4       0xc4 THUMB Flash Debug 160k/ltable.o
                0x004354d4                luaH_getint
 .text.luaH_getstr
                0x00435598       0x7c THUMB Flash Debug 160k/ltable.o
                0x00435598                luaH_getstr
 .text.luaH_get
                0x00435614      0x114 THUMB Flash Debug 160k/ltable.o
                0x00435614                luaH_get
 .text.luaH_set
                0x00435728       0x40 THUMB Flash Debug 160k/ltable.o
                0x00435728                luaH_set
 .text.luaH_setint
                0x00435768       0x74 THUMB Flash Debug 160k/ltable.o
                0x00435768                luaH_setint
 .text.unbound_search
                0x004357dc       0xb8 THUMB Flash Debug 160k/ltable.o
 .text.luaH_getn
                0x00435894       0x94 THUMB Flash Debug 160k/ltable.o
                0x00435894                luaH_getn
 .text.checktab
                0x00435928       0xdc THUMB Flash Debug 160k/ltablib.o
 .text.tinsert  0x00435a04      0x128 THUMB Flash Debug 160k/ltablib.o
 .text.tremove  0x00435b2c      0x124 THUMB Flash Debug 160k/ltablib.o
 .text.tmove    0x00435c50      0x21c THUMB Flash Debug 160k/ltablib.o
 .text.addfield
                0x00435e6c       0x68 THUMB Flash Debug 160k/ltablib.o
 .text.tconcat  0x00435ed4      0x1f8 THUMB Flash Debug 160k/ltablib.o
 .text.pack     0x004360cc       0x80 THUMB Flash Debug 160k/ltablib.o
 .text.unpack   0x0043614c      0x128 THUMB Flash Debug 160k/ltablib.o
 .text.set2     0x00436274       0x40 THUMB Flash Debug 160k/ltablib.o
 .text.sort_comp
                0x004362b4       0x90 THUMB Flash Debug 160k/ltablib.o
 .text.auxsort  0x00436344      0x2dc THUMB Flash Debug 160k/ltablib.o
 .text.sort     0x00436620       0x84 THUMB Flash Debug 160k/ltablib.o
 *fill*         0x004366a4        0x4 00
 .text.luaopen_table
                0x004366a8       0x50 THUMB Flash Debug 160k/ltablib.o
                0x004366a8                luaopen_table
 .text.luaT_init
                0x004366f8       0x6c THUMB Flash Debug 160k/ltm.o
                0x004366f8                luaT_init
 .text.luaT_gettm
                0x00436764       0x4c THUMB Flash Debug 160k/ltm.o
                0x00436764                luaT_gettm
 .text.luaT_gettmbyobj
                0x004367b0       0x84 THUMB Flash Debug 160k/ltm.o
                0x004367b0                luaT_gettmbyobj
 .text.luaT_callTM
                0x00436834       0xe4 THUMB Flash Debug 160k/ltm.o
                0x00436834                luaT_callTM
 .text.luaT_callbinTM
                0x00436918       0x6c THUMB Flash Debug 160k/ltm.o
                0x00436918                luaT_callbinTM
 .text.luaT_trybinTM
                0x00436984       0xec THUMB Flash Debug 160k/ltm.o
                0x00436984                luaT_trybinTM
 .text.luaT_callorderTM
                0x00436a70       0x60 THUMB Flash Debug 160k/ltm.o
                0x00436a70                luaT_callorderTM
 .text.error    0x00436ad0       0x34 THUMB Flash Debug 160k/lundump.o
 .text.LoadBlock
                0x00436b04       0x38 THUMB Flash Debug 160k/lundump.o
 .text.LoadByte
                0x00436b3c       0x24 THUMB Flash Debug 160k/lundump.o
 .text.LoadInt  0x00436b60       0x24 THUMB Flash Debug 160k/lundump.o
 .text.LoadNumber
                0x00436b84       0x28 THUMB Flash Debug 160k/lundump.o
 .text.LoadInteger
                0x00436bac       0x28 THUMB Flash Debug 160k/lundump.o
 .text.LoadString
                0x00436bd4       0x7c THUMB Flash Debug 160k/lundump.o
 .text.LoadCode
                0x00436c50       0x6c THUMB Flash Debug 160k/lundump.o
 .text.LoadConstants
                0x00436cbc      0x1a0 THUMB Flash Debug 160k/lundump.o
 .text.LoadProtos
                0x00436e5c       0xd0 THUMB Flash Debug 160k/lundump.o
 .text.LoadUpvalues
                0x00436f2c       0xc8 THUMB Flash Debug 160k/lundump.o
 .text.LoadDebug
                0x00436ff4      0x19c THUMB Flash Debug 160k/lundump.o
 .text.LoadFunction
                0x00437190       0x98 THUMB Flash Debug 160k/lundump.o
 .text.checkliteral
                0x00437228       0x48 THUMB Flash Debug 160k/lundump.o
 .text.fchecksize
                0x00437270       0x44 THUMB Flash Debug 160k/lundump.o
 *fill*         0x004372b4        0x4 00
 .text.checkHeader
                0x004372b8      0x148 THUMB Flash Debug 160k/lundump.o
 .text.luaU_undump
                0x00437400       0xdc THUMB Flash Debug 160k/lundump.o
                0x00437400                luaU_undump
 .text.u_posrelat
                0x004374dc       0x64 THUMB Flash Debug 160k/lutf8lib.o
 .text.utf8_decode
                0x00437540       0xe0 THUMB Flash Debug 160k/lutf8lib.o
 .text.utflen   0x00437620      0x194 THUMB Flash Debug 160k/lutf8lib.o
 .text.codepoint
                0x004377b4      0x194 THUMB Flash Debug 160k/lutf8lib.o
 .text.pushutfchar
                0x00437948       0x70 THUMB Flash Debug 160k/lutf8lib.o
 .text.utfchar  0x004379b8       0xec THUMB Flash Debug 160k/lutf8lib.o
 .text.byteoffset
                0x00437aa4      0x26c THUMB Flash Debug 160k/lutf8lib.o
 .text.iter_aux
                0x00437d10      0x130 THUMB Flash Debug 160k/lutf8lib.o
 .text.iter_codes
                0x00437e40       0x50 THUMB Flash Debug 160k/lutf8lib.o
 .text.luaopen_utf8
                0x00437e90       0x78 THUMB Flash Debug 160k/lutf8lib.o
                0x00437e90                luaopen_utf8
 .text.tofloat  0x00437f08       0x6c THUMB Flash Debug 160k/lvm.o
 .text.luaV_tonumber_
                0x00437f74       0x98 THUMB Flash Debug 160k/lvm.o
                0x00437f74                luaV_tonumber_
 .text.tointeger_aux
                0x0043800c      0x144 THUMB Flash Debug 160k/lvm.o
 .text.luaV_tointeger_
                0x00438150       0x24 THUMB Flash Debug 160k/lvm.o
                0x00438150                luaV_tointeger_
 .text.forlimit
                0x00438174       0xf8 THUMB Flash Debug 160k/lvm.o
 .text.luaV_gettable
                0x0043826c      0x10c THUMB Flash Debug 160k/lvm.o
                0x0043826c                luaV_gettable
 .text.luaV_settable
                0x00438378      0x160 THUMB Flash Debug 160k/lvm.o
                0x00438378                luaV_settable
 .text.l_strcmp
                0x004384d8       0xa0 THUMB Flash Debug 160k/lvm.o
 .text.luaV_lessthan
                0x00438578       0xd8 THUMB Flash Debug 160k/lvm.o
                0x00438578                luaV_lessthan
 .text.luaV_lessequal
                0x00438650      0x100 THUMB Flash Debug 160k/lvm.o
                0x00438650                luaV_lessequal
 .text.luaV_equalobj
                0x00438750      0x360 THUMB Flash Debug 160k/lvm.o
                0x00438750                luaV_equalobj
 .text.luaV_concat
                0x00438ab0      0x27c THUMB Flash Debug 160k/lvm.o
                0x00438ab0                luaV_concat
 .text.luaV_objlen
                0x00438d2c       0xf4 THUMB Flash Debug 160k/lvm.o
                0x00438d2c                luaV_objlen
 .text.luaV_div
                0x00438e20       0xbc THUMB Flash Debug 160k/lvm.o
                0x00438e20                luaV_div
 .text.luaV_mod
                0x00438edc       0xa8 THUMB Flash Debug 160k/lvm.o
                0x00438edc                luaV_mod
 .text.luaV_shiftl
                0x00438f84       0xc8 THUMB Flash Debug 160k/lvm.o
                0x00438f84                luaV_shiftl
 .text.getcached
                0x0043904c       0xa4 THUMB Flash Debug 160k/lvm.o
 .text.pushclosure
                0x004390f0       0xe8 THUMB Flash Debug 160k/lvm.o
 .text.luaV_finishOp
                0x004391d8      0x250 THUMB Flash Debug 160k/lvm.o
                0x004391d8                luaV_finishOp
 .text.luaV_execute
                0x00439428     0x309c THUMB Flash Debug 160k/lvm.o
                0x00439428                luaV_execute
 .text.luaZ_fill
                0x0043c4c4       0x5c THUMB Flash Debug 160k/lzio.o
                0x0043c4c4                luaZ_fill
 .text.luaZ_init
                0x0043c520       0x3c THUMB Flash Debug 160k/lzio.o
                0x0043c520                luaZ_init
 .text.luaZ_read
                0x0043c55c       0x98 THUMB Flash Debug 160k/lzio.o
                0x0043c55c                luaZ_read
 .text.luaZ_openspace
                0x0043c5f4       0x50 THUMB Flash Debug 160k/lzio.o
                0x0043c5f4                luaZ_openspace
 .text.strbuf_reset
                0x0043c644       0x1c THUMB Flash Debug 160k/lua_cjson.o
 .text.strbuf_empty_length
                0x0043c660       0x24 THUMB Flash Debug 160k/lua_cjson.o
 .text.strbuf_ensure_empty_length
                0x0043c684       0x30 THUMB Flash Debug 160k/lua_cjson.o
 .text.strbuf_empty_ptr
                0x0043c6b4       0x20 THUMB Flash Debug 160k/lua_cjson.o
 .text.strbuf_extend_length
                0x0043c6d4       0x20 THUMB Flash Debug 160k/lua_cjson.o
 .text.strbuf_append_char
                0x0043c6f4       0x38 THUMB Flash Debug 160k/lua_cjson.o
 .text.strbuf_append_char_unsafe
                0x0043c72c       0x30 THUMB Flash Debug 160k/lua_cjson.o
 .text.strbuf_append_mem
                0x0043c75c       0x40 THUMB Flash Debug 160k/lua_cjson.o
 .text.strbuf_append_mem_unsafe
                0x0043c79c       0x38 THUMB Flash Debug 160k/lua_cjson.o
 .text.strbuf_ensure_null
                0x0043c7d4       0x24 THUMB Flash Debug 160k/lua_cjson.o
 .text.strbuf_string
                0x0043c7f8       0x28 THUMB Flash Debug 160k/lua_cjson.o
 .text.json_fetch_config
                0x0043c820       0x38 THUMB Flash Debug 160k/lua_cjson.o
 .text.json_arg_init
                0x0043c858       0x64 THUMB Flash Debug 160k/lua_cjson.o
 .text.json_integer_option
                0x0043c8bc       0x94 THUMB Flash Debug 160k/lua_cjson.o
 .text.json_enum_option
                0x0043c950       0xbc THUMB Flash Debug 160k/lua_cjson.o
 .text.json_cfg_encode_sparse_array
                0x0043ca0c       0x78 THUMB Flash Debug 160k/lua_cjson.o
 .text.json_cfg_encode_max_depth
                0x0043ca84       0x40 THUMB Flash Debug 160k/lua_cjson.o
 .text.json_cfg_decode_max_depth
                0x0043cac4       0x40 THUMB Flash Debug 160k/lua_cjson.o
 .text.json_cfg_encode_number_precision
                0x0043cb04       0x40 THUMB Flash Debug 160k/lua_cjson.o
 .text.json_cfg_encode_keep_buffer
                0x0043cb44       0x7c THUMB Flash Debug 160k/lua_cjson.o
 .text.json_cfg_encode_invalid_numbers
                0x0043cbc0       0x44 THUMB Flash Debug 160k/lua_cjson.o
 .text.json_cfg_decode_invalid_numbers
                0x0043cc04       0x40 THUMB Flash Debug 160k/lua_cjson.o
 .text.json_destroy_config
                0x0043cc44       0x3c THUMB Flash Debug 160k/lua_cjson.o
 .text.json_create_config
                0x0043cc80      0x24c THUMB Flash Debug 160k/lua_cjson.o
 .text.json_encode_exception
                0x0043cecc       0x4c THUMB Flash Debug 160k/lua_cjson.o
 .text.json_append_string
                0x0043cf18       0xa4 THUMB Flash Debug 160k/lua_cjson.o
 .text.lua_array_length
                0x0043cfbc      0x170 THUMB Flash Debug 160k/lua_cjson.o
 .text.json_check_encode_depth
                0x0043d12c       0x58 THUMB Flash Debug 160k/lua_cjson.o
 .text.json_append_array
                0x0043d184       0x88 THUMB Flash Debug 160k/lua_cjson.o
 .text.json_append_number
                0x0043d20c      0x100 THUMB Flash Debug 160k/lua_cjson.o
 .text.json_append_object
                0x0043d30c       0xec THUMB Flash Debug 160k/lua_cjson.o
 .text.json_append_data
                0x0043d3f8      0x134 THUMB Flash Debug 160k/lua_cjson.o
 .text.json_encode
                0x0043d52c       0xa8 THUMB Flash Debug 160k/lua_cjson.o
 .text.hexdigit2int
                0x0043d5d4       0x4c THUMB Flash Debug 160k/lua_cjson.o
 .text.decode_hex4
                0x0043d620       0x7c THUMB Flash Debug 160k/lua_cjson.o
 .text.codepoint_to_utf8
                0x0043d69c      0x148 THUMB Flash Debug 160k/lua_cjson.o
 .text.json_append_unicode_escape
                0x0043d7e4      0x118 THUMB Flash Debug 160k/lua_cjson.o
 .text.json_set_token_error
                0x0043d8fc       0x34 THUMB Flash Debug 160k/lua_cjson.o
 .text.json_next_string_token
                0x0043d930      0x130 THUMB Flash Debug 160k/lua_cjson.o
 .text.json_is_invalid_number
                0x0043da60       0xb8 THUMB Flash Debug 160k/lua_cjson.o
 .text.json_next_number_token
                0x0043db18       0x58 THUMB Flash Debug 160k/lua_cjson.o
 .text.json_next_token
                0x0043db70      0x1c0 THUMB Flash Debug 160k/lua_cjson.o
 .text.json_throw_parse_error
                0x0043dd30       0x60 THUMB Flash Debug 160k/lua_cjson.o
 .text.json_decode_ascend
                0x0043dd90       0x20 THUMB Flash Debug 160k/lua_cjson.o
 .text.json_decode_descend
                0x0043ddb0       0x6c THUMB Flash Debug 160k/lua_cjson.o
 .text.json_parse_object_context
                0x0043de1c       0xfc THUMB Flash Debug 160k/lua_cjson.o
 .text.json_parse_array_context
                0x0043df18       0xb8 THUMB Flash Debug 160k/lua_cjson.o
 .text.json_process_value
                0x0043dfd0       0xa8 THUMB Flash Debug 160k/lua_cjson.o
 .text.json_decode
                0x0043e078       0xf0 THUMB Flash Debug 160k/lua_cjson.o
 .text.json_protect_conversion
                0x0043e168       0xac THUMB Flash Debug 160k/lua_cjson.o
 .text.lua_cjson_new
                0x0043e214       0xbc THUMB Flash Debug 160k/lua_cjson.o
 .text.lua_cjson_safe_new
                0x0043e2d0       0xc4 THUMB Flash Debug 160k/lua_cjson.o
 .text.luaopen_cjson
                0x0043e394       0x1c THUMB Flash Debug 160k/lua_cjson.o
                0x0043e394                luaopen_cjson
 .text.luaopen_cjson_safe
                0x0043e3b0       0x1c THUMB Flash Debug 160k/lua_cjson.o
                0x0043e3b0                luaopen_cjson_safe
 .text.strbuf_empty_length
                0x0043e3cc       0x24 THUMB Flash Debug 160k/strbuf.o
 .text.strbuf_ensure_null
                0x0043e3f0       0x24 THUMB Flash Debug 160k/strbuf.o
 .text.die      0x0043e414       0x18 THUMB Flash Debug 160k/strbuf.o
 .text.strbuf_init
                0x0043e42c       0x88 THUMB Flash Debug 160k/strbuf.o
                0x0043e42c                strbuf_init
 .text.strbuf_new
                0x0043e4b4       0x44 THUMB Flash Debug 160k/strbuf.o
                0x0043e4b4                strbuf_new
 .text.debug_stats
                0x0043e4f8       0x44 THUMB Flash Debug 160k/strbuf.o
 .text.strbuf_free
                0x0043e53c       0x40 THUMB Flash Debug 160k/strbuf.o
                0x0043e53c                strbuf_free
 .text.calculate_new_size
                0x0043e57c       0x88 THUMB Flash Debug 160k/strbuf.o
 .text.strbuf_resize
                0x0043e604       0x84 THUMB Flash Debug 160k/strbuf.o
                0x0043e604                strbuf_resize
 .text.strbuf_append_string
                0x0043e688       0x80 THUMB Flash Debug 160k/strbuf.o
                0x0043e688                strbuf_append_string
 .text.valid_number_character
                0x0043e708       0x60 THUMB Flash Debug 160k/fpconv.o
 .text.strtod_buffer_size
                0x0043e768       0x38 THUMB Flash Debug 160k/fpconv.o
 .text.fpconv_strtod
                0x0043e7a0      0x100 THUMB Flash Debug 160k/fpconv.o
                0x0043e7a0                fpconv_strtod
 .text.set_number_format
                0x0043e8a0       0xec THUMB Flash Debug 160k/fpconv.o
 .text.fpconv_g_fmt
                0x0043e98c       0xb8 THUMB Flash Debug 160k/fpconv.o
                0x0043e98c                fpconv_g_fmt
 .text.SystemInit
                0x0043ea44      0x124 THUMB Flash Debug 160k/system_sam.o
                0x0043ea44                SystemInit
 .text.libc.__int32_to_float32
                0x0043eb68       0x30 C:/Program Files/Rowley Associates Limited/CrossWorks for ARM 2.3/lib/libm_v7em_t_le_eabi.a(libm_asm.o)
                0x0043eb68                __int32_to_float32
                0x0043eb68                __floatsisf
                0x0043eb68                __aeabi_i2f
                0x0043eb78                __int32_to_float32_common
 .text.libc.__int32_to_float64
                0x0043eb98       0x30 C:/Program Files/Rowley Associates Limited/CrossWorks for ARM 2.3/lib/libm_v7em_t_le_eabi.a(libm_asm.o)
                0x0043eb98                __aeabi_i2d
                0x0043eb98                __int32_to_float64
                0x0043eb98                __floatsidf
 .text.libc.__uint32_to_float64
                0x0043ebc8       0x24 C:/Program Files/Rowley Associates Limited/CrossWorks for ARM 2.3/lib/libm_v7em_t_le_eabi.a(libm_asm.o)
                0x0043ebc8                __aeabi_ui2d
                0x0043ebc8                __floatunsidf
                0x0043ebc8                __uint32_to_float64
 .text.libc.__int64_to_float64
                0x0043ebec       0xa0 C:/Program Files/Rowley Associates Limited/CrossWorks for ARM 2.3/lib/libm_v7em_t_le_eabi.a(libm_asm.o)
                0x0043ebec                __int64_to_float64
                0x0043ebec                __aeabi_l2d
                0x0043ebec                __floatdidf
                0x0043ec0e                __RAL_aeabi_l2d_common
 .text.libc.__uint64_to_float64
                0x0043ec8c       0x14 C:/Program Files/Rowley Associates Limited/CrossWorks for ARM 2.3/lib/libm_v7em_t_le_eabi.a(libm_asm.o)
                0x0043ec8c                __aeabi_ul2d
                0x0043ec8c                __floatundidf
                0x0043ec8c                __uint64_to_float64
 .text.libc.__float64_to_int32
                0x0043eca0       0x50 C:/Program Files/Rowley Associates Limited/CrossWorks for ARM 2.3/lib/libm_v7em_t_le_eabi.a(libm_asm.o)
                0x0043eca0                __aeabi_d2iz
                0x0043eca0                __float64_to_int32
                0x0043eca0                __fixdfsi
 .text.libc.__float64_to_int64
                0x0043ecf0       0x80 C:/Program Files/Rowley Associates Limited/CrossWorks for ARM 2.3/lib/libm_v7em_t_le_eabi.a(libm_asm.o)
                0x0043ecf0                __aeabi_d2lz
                0x0043ecf0                __fixdfdi
                0x0043ecf0                __float64_to_int64
 .text.libc.__float64_to_uint32
                0x0043ed70       0x2c C:/Program Files/Rowley Associates Limited/CrossWorks for ARM 2.3/lib/libm_v7em_t_le_eabi.a(libm_asm.o)
                0x0043ed70                __aeabi_d2uiz
                0x0043ed70                __float64_to_uint32
                0x0043ed70                __fixunsdfsi
 .text.libc.__float64_to_uint64
                0x0043ed9c       0x48 C:/Program Files/Rowley Associates Limited/CrossWorks for ARM 2.3/lib/libm_v7em_t_le_eabi.a(libm_asm.o)
                0x0043ed9c                __fixunsdfdi
                0x0043ed9c                __float64_to_uint64
                0x0043ed9c                __aeabi_d2ulz
 .text.libc.__float32_to_float64
                0x0043ede4       0x38 C:/Program Files/Rowley Associates Limited/CrossWorks for ARM 2.3/lib/libm_v7em_t_le_eabi.a(libm_asm.o)
                0x0043ede4                __float32_to_float64
                0x0043ede4                __aeabi_f2d
                0x0043ede4                __extendsfdf2
 .text.libc.__float64_to_float32
                0x0043ee1c       0x70 C:/Program Files/Rowley Associates Limited/CrossWorks for ARM 2.3/lib/libm_v7em_t_le_eabi.a(libm_asm.o)
                0x0043ee1c                __truncdfsf2
                0x0043ee1c                __float64_to_float32
                0x0043ee1c                __aeabi_d2f
 .text.libc.__float32_div
                0x0043ee8c      0x1e0 C:/Program Files/Rowley Associates Limited/CrossWorks for ARM 2.3/lib/libm_v7em_t_le_eabi.a(libm_asm.o)
                0x0043ee8c                __aeabi_fdiv
                0x0043ee8c                __float32_div
                0x0043ee8c                __divsf3
 .text.libc.__float64_add
                0x0043f06c      0x294 C:/Program Files/Rowley Associates Limited/CrossWorks for ARM 2.3/lib/libm_v7em_t_le_eabi.a(libm_asm.o)
                0x0043f06c                __aeabi_drsub
                0x0043f074                __aeabi_dsub
                0x0043f074                __float64_sub
                0x0043f074                __subdf3
                0x0043f078                __aeabi_dadd
                0x0043f078                __float64_add
                0x0043f078                __adddf3
 .text.libc.__float64_mul
                0x0043f300      0x16c C:/Program Files/Rowley Associates Limited/CrossWorks for ARM 2.3/lib/libm_v7em_t_le_eabi.a(libm_asm.o)
                0x0043f300                __float64_mul
                0x0043f300                __muldf3
                0x0043f300                __aeabi_dmul
 .text.libc.__float64_div
                0x0043f46c      0x214 C:/Program Files/Rowley Associates Limited/CrossWorks for ARM 2.3/lib/libm_v7em_t_le_eabi.a(libm_asm.o)
                0x0043f46c                __divdf3
                0x0043f46c                __float64_div
                0x0043f46c                __aeabi_ddiv
 .text.libc.__float64_cmp
                0x0043f680       0x64 C:/Program Files/Rowley Associates Limited/CrossWorks for ARM 2.3/lib/libm_v7em_t_le_eabi.a(libm_asm.o)
                0x0043f680                __eqdf2
                0x0043f680                __gtdf2
                0x0043f680                __ltdf2
                0x0043f680                __ledf2
                0x0043f680                __nedf2
                0x0043f680                __gedf2
                0x0043f680                __cmpdf2
 .text.libc.__aeabi_dcmpeq
                0x0043f6e4       0x14 C:/Program Files/Rowley Associates Limited/CrossWorks for ARM 2.3/lib/libm_v7em_t_le_eabi.a(libm_asm.o)
                0x0043f6e4                __aeabi_dcmpeq
 .text.libc.__aeabi_dcmplt
                0x0043f6f8       0x18 C:/Program Files/Rowley Associates Limited/CrossWorks for ARM 2.3/lib/libm_v7em_t_le_eabi.a(libm_asm.o)
                0x0043f6f8                __aeabi_dcmplt
 .text.libc.__aeabi_dcmple
                0x0043f710       0x14 C:/Program Files/Rowley Associates Limited/CrossWorks for ARM 2.3/lib/libm_v7em_t_le_eabi.a(libm_asm.o)
                0x0043f710                __aeabi_dcmple
 .text.libc.__aeabi_dcmpge
                0x0043f724       0x18 C:/Program Files/Rowley Associates Limited/CrossWorks for ARM 2.3/lib/libm_v7em_t_le_eabi.a(libm_asm.o)
                0x0043f724                __aeabi_dcmpge
 .text.libc.__aeabi_dcmpgt
                0x0043f73c       0x10 C:/Program Files/Rowley Associates Limited/CrossWorks for ARM 2.3/lib/libm_v7em_t_le_eabi.a(libm_asm.o)
                0x0043f73c                __aeabi_dcmpgt
 .text.libc.__float32_isinf
                0x0043f74c       0x10 C:/Program Files/Rowley Associates Limited/CrossWorks for ARM 2.3/lib/libm_v7em_t_le_eabi.a(libm_asm.o)
                0x0043f74c                __float32_isinf
 .text.libc.__float64_isinf
                0x0043f75c       0x10 C:/Program Files/Rowley Associates Limited/CrossWorks for ARM 2.3/lib/libm_v7em_t_le_eabi.a(libm_asm.o)
                0x0043f75c                __float64_isinf
 .text.libc.__float64_isnan
                0x0043f76c       0x10 C:/Program Files/Rowley Associates Limited/CrossWorks for ARM 2.3/lib/libm_v7em_t_le_eabi.a(libm_asm.o)
                0x0043f76c                __float64_isnan
 *fill*         0x0043f77c        0x4 00
 .text.libc.exp.part.2
                0x0043f780      0x1b8 C:/Program Files/Rowley Associates Limited/CrossWorks for ARM 2.3/lib/libm_v7em_t_le_eabi.a(libm2.o)
 .text.libc.sqrt.part.5
                0x0043f938      0x218 C:/Program Files/Rowley Associates Limited/CrossWorks for ARM 2.3/lib/libm_v7em_t_le_eabi.a(libm2.o)
 .text.libc.log.part.3
                0x0043fb50      0x2d0 C:/Program Files/Rowley Associates Limited/CrossWorks for ARM 2.3/lib/libm_v7em_t_le_eabi.a(libm2.o)
 .text.libc.__asinacos
                0x0043fe20      0x2f0 C:/Program Files/Rowley Associates Limited/CrossWorks for ARM 2.3/lib/libm_v7em_t_le_eabi.a(libm2.o)
                0x0043fe20                __asinacos
 .text.libc.acos
                0x00440110        0x8 C:/Program Files/Rowley Associates Limited/CrossWorks for ARM 2.3/lib/libm_v7em_t_le_eabi.a(libm2.o)
                0x00440110                acos
 .text.libc.asin
                0x00440118        0x8 C:/Program Files/Rowley Associates Limited/CrossWorks for ARM 2.3/lib/libm_v7em_t_le_eabi.a(libm2.o)
                0x00440118                asin
 .text.libc.atan
                0x00440120      0x238 C:/Program Files/Rowley Associates Limited/CrossWorks for ARM 2.3/lib/libm_v7em_t_le_eabi.a(libm2.o)
                0x00440120                atan
 .text.libc.atan2
                0x00440358      0x130 C:/Program Files/Rowley Associates Limited/CrossWorks for ARM 2.3/lib/libm_v7em_t_le_eabi.a(libm2.o)
                0x00440358                atan2
 .text.libc.ceil
                0x00440488       0xb0 C:/Program Files/Rowley Associates Limited/CrossWorks for ARM 2.3/lib/libm_v7em_t_le_eabi.a(libm2.o)
                0x00440488                ceil
 .text.libc.cos
                0x00440538      0x1c0 C:/Program Files/Rowley Associates Limited/CrossWorks for ARM 2.3/lib/libm_v7em_t_le_eabi.a(libm2.o)
                0x00440538                cos
 .text.libc.exp
                0x004406f8       0x88 C:/Program Files/Rowley Associates Limited/CrossWorks for ARM 2.3/lib/libm_v7em_t_le_eabi.a(libm2.o)
                0x004406f8                exp
 .text.libc.frexp
                0x00440780       0x4c C:/Program Files/Rowley Associates Limited/CrossWorks for ARM 2.3/lib/libm_v7em_t_le_eabi.a(libm2.o)
                0x00440780                frexp
 .text.libc.ldexp
                0x004407cc       0x68 C:/Program Files/Rowley Associates Limited/CrossWorks for ARM 2.3/lib/libm_v7em_t_le_eabi.a(libm2.o)
                0x004407cc                ldexp
 *fill*         0x00440834        0x4 00
 .text.libc.log10
                0x00440838       0x88 C:/Program Files/Rowley Associates Limited/CrossWorks for ARM 2.3/lib/libm_v7em_t_le_eabi.a(libm2.o)
                0x00440838                log10
 .text.libc.log
                0x004408c0       0x54 C:/Program Files/Rowley Associates Limited/CrossWorks for ARM 2.3/lib/libm_v7em_t_le_eabi.a(libm2.o)
                0x004408c0                log
 *fill*         0x00440914        0x4 00
 .text.libc.pow
                0x00440918      0x1e0 C:/Program Files/Rowley Associates Limited/CrossWorks for ARM 2.3/lib/libm_v7em_t_le_eabi.a(libm2.o)
                0x00440918                pow
 .text.libc.sin
                0x00440af8      0x1b8 C:/Program Files/Rowley Associates Limited/CrossWorks for ARM 2.3/lib/libm_v7em_t_le_eabi.a(libm2.o)
                0x00440af8                sin
 .text.libc.tan
                0x00440cb0      0x280 C:/Program Files/Rowley Associates Limited/CrossWorks for ARM 2.3/lib/libm_v7em_t_le_eabi.a(libm2.o)
                0x00440cb0                tan
 .text.libc.sqrt
                0x00440f30       0x48 C:/Program Files/Rowley Associates Limited/CrossWorks for ARM 2.3/lib/libm_v7em_t_le_eabi.a(libm2.o)
                0x00440f30                sqrt
 .text.libc.floor
                0x00440f78       0xa8 C:/Program Files/Rowley Associates Limited/CrossWorks for ARM 2.3/lib/libm_v7em_t_le_eabi.a(libm2.o)
                0x00440f78                floor
 .text.libc.fmod
                0x00441020      0x174 C:/Program Files/Rowley Associates Limited/CrossWorks for ARM 2.3/lib/libm_v7em_t_le_eabi.a(libm2.o)
                0x00441020                fmod
 .text.libc.fabs
                0x00441194        0x8 C:/Program Files/Rowley Associates Limited/CrossWorks for ARM 2.3/lib/libm_v7em_t_le_eabi.a(libm2_asm.o)
                0x00441194                fabs
 .text.libc.__int64_udivmod
                0x0044119c       0x60 C:/Program Files/Rowley Associates Limited/CrossWorks for ARM 2.3/lib/libc_v7em_t_le_eabi.a(libc_asm.o)
                0x0044119c                __aeabi_uldivmod
                0x0044119c                __int64_udiv
                0x0044119c                __udivdi3
                0x0044119c                __int64_udivmod
 .text.libc.__aeabi_ldivmod
                0x004411fc       0x58 C:/Program Files/Rowley Associates Limited/CrossWorks for ARM 2.3/lib/libc_v7em_t_le_eabi.a(libc_asm.o)
                0x004411fc                __aeabi_ldivmod
 .text.libc.month_name
                0x00441254       0x14 C:/Program Files/Rowley Associates Limited/CrossWorks for ARM 2.3/lib/libc_v7em_t_le_eabi.a(libc2.o)
 .text.libc.checked_day_name
                0x00441268       0x14 C:/Program Files/Rowley Associates Limited/CrossWorks for ARM 2.3/lib/libc_v7em_t_le_eabi.a(libc2.o)
 .text.libc.put_ch
                0x0044127c       0x24 C:/Program Files/Rowley Associates Limited/CrossWorks for ARM 2.3/lib/libc_v7em_t_le_eabi.a(libc2.o)
 .text.libc.put_str
                0x004412a0       0x1c C:/Program Files/Rowley Associates Limited/CrossWorks for ARM 2.3/lib/libc_v7em_t_le_eabi.a(libc2.o)
 .text.libc.put_nstr
                0x004412bc       0x24 C:/Program Files/Rowley Associates Limited/CrossWorks for ARM 2.3/lib/libc_v7em_t_le_eabi.a(libc2.o)
 .text.libc.put_digit
                0x004412e0       0x24 C:/Program Files/Rowley Associates Limited/CrossWorks for ARM 2.3/lib/libc_v7em_t_le_eabi.a(libc2.o)
 .text.libc.put_twodigit
                0x00441304       0x34 C:/Program Files/Rowley Associates Limited/CrossWorks for ARM 2.3/lib/libc_v7em_t_le_eabi.a(libc2.o)
 .text.libc.put_twodigits_leading_blank
                0x00441338       0x24 C:/Program Files/Rowley Associates Limited/CrossWorks for ARM 2.3/lib/libc_v7em_t_le_eabi.a(libc2.o)
 .text.libc.put_twodigit2
                0x0044135c       0x1c C:/Program Files/Rowley Associates Limited/CrossWorks for ARM 2.3/lib/libc_v7em_t_le_eabi.a(libc2.o)
 .text.libc.put_formatted
                0x00441378      0x3ec C:/Program Files/Rowley Associates Limited/CrossWorks for ARM 2.3/lib/libc_v7em_t_le_eabi.a(libc2.o)
 .text.libc.__getc
                0x00441764       0x24 C:/Program Files/Rowley Associates Limited/CrossWorks for ARM 2.3/lib/libc_v7em_t_le_eabi.a(libc2.o)
                0x00441764                __getc
 .text.libc.__RAL_pow10
                0x00441788       0x74 C:/Program Files/Rowley Associates Limited/CrossWorks for ARM 2.3/lib/libc_v7em_t_le_eabi.a(libc2.o)
                0x00441788                __RAL_pow10
 .text.libc.__putc
                0x004417fc       0x38 C:/Program Files/Rowley Associates Limited/CrossWorks for ARM 2.3/lib/libc_v7em_t_le_eabi.a(libc2.o)
                0x004417fc                __putc
 .text.libc.__print_padding
                0x00441834       0x24 C:/Program Files/Rowley Associates Limited/CrossWorks for ARM 2.3/lib/libc_v7em_t_le_eabi.a(libc2.o)
                0x00441834                __print_padding
 .text.libc.__pre_padding
                0x00441858       0x1c C:/Program Files/Rowley Associates Limited/CrossWorks for ARM 2.3/lib/libc_v7em_t_le_eabi.a(libc2.o)
                0x00441858                __pre_padding
 .text.libc.abs
                0x00441874        0x8 C:/Program Files/Rowley Associates Limited/CrossWorks for ARM 2.3/lib/libc_v7em_t_le_eabi.a(libc2.o)
                0x00441874                abs
 .text.libc.isalpha
                0x0044187c       0x1c C:/Program Files/Rowley Associates Limited/CrossWorks for ARM 2.3/lib/libc_v7em_t_le_eabi.a(libc2.o)
                0x0044187c                isalpha
 .text.libc.isupper
                0x00441898       0x10 C:/Program Files/Rowley Associates Limited/CrossWorks for ARM 2.3/lib/libc_v7em_t_le_eabi.a(libc2.o)
                0x00441898                isupper
 .text.libc.islower
                0x004418a8       0x10 C:/Program Files/Rowley Associates Limited/CrossWorks for ARM 2.3/lib/libc_v7em_t_le_eabi.a(libc2.o)
                0x004418a8                islower
 .text.libc.isdigit
                0x004418b8       0x10 C:/Program Files/Rowley Associates Limited/CrossWorks for ARM 2.3/lib/libc_v7em_t_le_eabi.a(libc2.o)
                0x004418b8                isdigit
 .text.libc.__digit
                0x004418c8       0x3c C:/Program Files/Rowley Associates Limited/CrossWorks for ARM 2.3/lib/libc_v7em_t_le_eabi.a(libc2.o)
                0x004418c8                __digit
 .text.libc.isxdigit
                0x00441904       0x2c C:/Program Files/Rowley Associates Limited/CrossWorks for ARM 2.3/lib/libc_v7em_t_le_eabi.a(libc2.o)
                0x00441904                isxdigit
 .text.libc.isspace
                0x00441930       0x18 C:/Program Files/Rowley Associates Limited/CrossWorks for ARM 2.3/lib/libc_v7em_t_le_eabi.a(libc2.o)
                0x00441930                isspace
 .text.libc.__strtoul
                0x00441948       0xec C:/Program Files/Rowley Associates Limited/CrossWorks for ARM 2.3/lib/libc_v7em_t_le_eabi.a(libc2.o)
                0x00441948                __strtoul
 .text.libc.ispunct
                0x00441a34       0x38 C:/Program Files/Rowley Associates Limited/CrossWorks for ARM 2.3/lib/libc_v7em_t_le_eabi.a(libc2.o)
                0x00441a34                ispunct
 .text.libc.isalnum
                0x00441a6c       0x2c C:/Program Files/Rowley Associates Limited/CrossWorks for ARM 2.3/lib/libc_v7em_t_le_eabi.a(libc2.o)
                0x00441a6c                isalnum
 .text.libc.isgraph
                0x00441a98       0x14 C:/Program Files/Rowley Associates Limited/CrossWorks for ARM 2.3/lib/libc_v7em_t_le_eabi.a(libc2.o)
                0x00441a98                isgraph
 .text.libc.iscntrl
                0x00441aac       0x14 C:/Program Files/Rowley Associates Limited/CrossWorks for ARM 2.3/lib/libc_v7em_t_le_eabi.a(libc2.o)
                0x00441aac                iscntrl
 .text.libc.tolower
                0x00441ac0       0x10 C:/Program Files/Rowley Associates Limited/CrossWorks for ARM 2.3/lib/libc_v7em_t_le_eabi.a(libc2.o)
                0x00441ac0                tolower
 .text.libc.toupper
                0x00441ad0       0x10 C:/Program Files/Rowley Associates Limited/CrossWorks for ARM 2.3/lib/libc_v7em_t_le_eabi.a(libc2.o)
                0x00441ad0                toupper
 .text.libc.div
                0x00441ae0       0x20 C:/Program Files/Rowley Associates Limited/CrossWorks for ARM 2.3/lib/libc_v7em_t_le_eabi.a(libc2.o)
                0x00441ae0                div
 .text.libc.ldiv
                0x00441b00       0x20 C:/Program Files/Rowley Associates Limited/CrossWorks for ARM 2.3/lib/libc_v7em_t_le_eabi.a(libc2.o)
                0x00441b00                ldiv
 .text.libc.localeconv
                0x00441b20        0xc C:/Program Files/Rowley Associates Limited/CrossWorks for ARM 2.3/lib/libc_v7em_t_le_eabi.a(libc2.o)
                0x00441b20                localeconv
 .text.libc.setlocale
                0x00441b2c       0x2c C:/Program Files/Rowley Associates Limited/CrossWorks for ARM 2.3/lib/libc_v7em_t_le_eabi.a(libc2.o)
                0x00441b2c                setlocale
 .text.libc.malloc
                0x00441b58       0x90 C:/Program Files/Rowley Associates Limited/CrossWorks for ARM 2.3/lib/libc_v7em_t_le_eabi.a(libc2.o)
                0x00441b58                malloc
 .text.libc.free
                0x00441be8       0xa8 C:/Program Files/Rowley Associates Limited/CrossWorks for ARM 2.3/lib/libc_v7em_t_le_eabi.a(libc2.o)
                0x00441be8                free
 .text.libc.realloc
                0x00441c90       0x24 C:/Program Files/Rowley Associates Limited/CrossWorks for ARM 2.3/lib/libc_v7em_t_le_eabi.a(libc2.o)
                0x00441c90                realloc
 .text.libc.memchr
                0x00441cb4       0x34 C:/Program Files/Rowley Associates Limited/CrossWorks for ARM 2.3/lib/libc_v7em_t_le_eabi.a(libc2.o)
                0x00441cb4                memchr
 .text.libc.memcmp
                0x00441ce8       0x54 C:/Program Files/Rowley Associates Limited/CrossWorks for ARM 2.3/lib/libc_v7em_t_le_eabi.a(libc2.o)
                0x00441ce8                memcmp
 .text.libc.memmove
                0x00441d3c       0x34 C:/Program Files/Rowley Associates Limited/CrossWorks for ARM 2.3/lib/libc_v7em_t_le_eabi.a(libc2.o)
                0x00441d3c                __aeabi_memmove8
                0x00441d3c                __aeabi_memmove
                0x00441d3c                __aeabi_memmove4
                0x00441d3c                memmove
 .text.libc.rand
                0x00441d70       0x28 C:/Program Files/Rowley Associates Limited/CrossWorks for ARM 2.3/lib/libc_v7em_t_le_eabi.a(libc2.o)
                0x00441d70                rand
 .text.libc.snprintf
                0x00441d98       0x2c C:/Program Files/Rowley Associates Limited/CrossWorks for ARM 2.3/lib/libc_v7em_t_le_eabi.a(libc2.o)
                0x00441d98                snprintf
 .text.libc.sprintf
                0x00441dc4       0x2c C:/Program Files/Rowley Associates Limited/CrossWorks for ARM 2.3/lib/libc_v7em_t_le_eabi.a(libc2.o)
                0x00441dc4                sprintf
 .text.libc.srand
                0x00441df0        0xc C:/Program Files/Rowley Associates Limited/CrossWorks for ARM 2.3/lib/libc_v7em_t_le_eabi.a(libc2.o)
                0x00441df0                srand
 .text.libc.strcasecmp
                0x00441dfc       0x24 C:/Program Files/Rowley Associates Limited/CrossWorks for ARM 2.3/lib/libc_v7em_t_le_eabi.a(libc2.o)
                0x00441dfc                strcasecmp
 .text.libc.strcat
                0x00441e20       0x2c C:/Program Files/Rowley Associates Limited/CrossWorks for ARM 2.3/lib/libc_v7em_t_le_eabi.a(libc2.o)
                0x00441e20                strcat
 .text.libc.strchr
                0x00441e4c       0x2c C:/Program Files/Rowley Associates Limited/CrossWorks for ARM 2.3/lib/libc_v7em_t_le_eabi.a(libc2.o)
                0x00441e4c                strchr
 .text.libc.strftime
                0x00441e78       0x34 C:/Program Files/Rowley Associates Limited/CrossWorks for ARM 2.3/lib/libc_v7em_t_le_eabi.a(libc2.o)
                0x00441e78                strftime
 .text.libc.strncasecmp
                0x00441eac       0x5c C:/Program Files/Rowley Associates Limited/CrossWorks for ARM 2.3/lib/libc_v7em_t_le_eabi.a(libc2.o)
                0x00441eac                strncasecmp
 .text.libc.strncat
                0x00441f08       0x38 C:/Program Files/Rowley Associates Limited/CrossWorks for ARM 2.3/lib/libc_v7em_t_le_eabi.a(libc2.o)
                0x00441f08                strncat
 .text.libc.strncmp
                0x00441f40       0x60 C:/Program Files/Rowley Associates Limited/CrossWorks for ARM 2.3/lib/libc_v7em_t_le_eabi.a(libc2.o)
                0x00441f40                strncmp
 .text.libc.strncpy
                0x00441fa0       0x3c C:/Program Files/Rowley Associates Limited/CrossWorks for ARM 2.3/lib/libc_v7em_t_le_eabi.a(libc2.o)
                0x00441fa0                strncpy
 .text.libc.strpbrk
                0x00441fdc       0x38 C:/Program Files/Rowley Associates Limited/CrossWorks for ARM 2.3/lib/libc_v7em_t_le_eabi.a(libc2.o)
                0x00441fdc                strpbrk
 .text.libc.strrchr
                0x00442014       0x38 C:/Program Files/Rowley Associates Limited/CrossWorks for ARM 2.3/lib/libc_v7em_t_le_eabi.a(libc2.o)
                0x00442014                strrchr
 .text.libc.strspn
                0x0044204c       0x2c C:/Program Files/Rowley Associates Limited/CrossWorks for ARM 2.3/lib/libc_v7em_t_le_eabi.a(libc2.o)
                0x0044204c                strspn
 .text.libc.strstr
                0x00442078       0x50 C:/Program Files/Rowley Associates Limited/CrossWorks for ARM 2.3/lib/libc_v7em_t_le_eabi.a(libc2.o)
                0x00442078                strstr
 .text.libc.strtod
                0x004420c8      0x1bc C:/Program Files/Rowley Associates Limited/CrossWorks for ARM 2.3/lib/libc_v7em_t_le_eabi.a(libc2.o)
                0x004420c8                strtod
 .text.libc.strtol
                0x00442284       0x8c C:/Program Files/Rowley Associates Limited/CrossWorks for ARM 2.3/lib/libc_v7em_t_le_eabi.a(libc2.o)
                0x00442284                strtol
 .text.libc.atoi
                0x00442310       0x24 C:/Program Files/Rowley Associates Limited/CrossWorks for ARM 2.3/lib/libc_v7em_t_le_eabi.a(libc2.o)
                0x00442310                atoi
 .text.libc.atof
                0x00442334      0x14c C:/Program Files/Rowley Associates Limited/CrossWorks for ARM 2.3/lib/libc_v7em_t_le_eabi.a(libc2.o)
                0x00442334                atof
 .text.libc.localtime_r
                0x00442480      0x190 C:/Program Files/Rowley Associates Limited/CrossWorks for ARM 2.3/lib/libc_v7em_t_le_eabi.a(libc2.o)
                0x00442480                localtime_r
 .text.libc.difftime
                0x00442610        0xc C:/Program Files/Rowley Associates Limited/CrossWorks for ARM 2.3/lib/libc_v7em_t_le_eabi.a(libc2.o)
                0x00442610                difftime
 .text.libc.checktm
                0x0044261c      0x244 C:/Program Files/Rowley Associates Limited/CrossWorks for ARM 2.3/lib/libc_v7em_t_le_eabi.a(libc2.o)
                0x0044261c                checktm
 .text.libc.mktime
                0x00442860      0x1c0 C:/Program Files/Rowley Associates Limited/CrossWorks for ARM 2.3/lib/libc_v7em_t_le_eabi.a(libc2.o)
                0x00442860                mktime
 .text.libc.gmtime
                0x00442a20       0x14 C:/Program Files/Rowley Associates Limited/CrossWorks for ARM 2.3/lib/libc_v7em_t_le_eabi.a(libc2.o)
                0x00442a20                gmtime
 .text.libc.localtime
                0x00442a34       0x14 C:/Program Files/Rowley Associates Limited/CrossWorks for ARM 2.3/lib/libc_v7em_t_le_eabi.a(libc2.o)
                0x00442a34                localtime
 .text.libc.gettimeofday
                0x00442a48       0x18 C:/Program Files/Rowley Associates Limited/CrossWorks for ARM 2.3/lib/libc_v7em_t_le_eabi.a(libc2.o)
                0x00442a48                gettimeofday
 .text.libc.longjmp
                0x00442a60       0x14 C:/Program Files/Rowley Associates Limited/CrossWorks for ARM 2.3/lib/libc_v7em_t_le_eabi.a(libc2_asm.o)
                0x00442a60                longjmp
 .text.libc.memcpy
                0x00442a74       0x3c C:/Program Files/Rowley Associates Limited/CrossWorks for ARM 2.3/lib/libc_v7em_t_le_eabi.a(libc2_asm.o)
                0x00442a74                __aeabi_memcpy
                0x00442a74                __aeabi_memcpy4
                0x00442a74                __aeabi_memcpy8
                0x00442a74                memcpy
 .text.libc.memset
                0x00442ab0       0x60 C:/Program Files/Rowley Associates Limited/CrossWorks for ARM 2.3/lib/libc_v7em_t_le_eabi.a(libc2_asm.o)
                0x00442ab0                memset
 .text.libc.setjmp
                0x00442b10        0xc C:/Program Files/Rowley Associates Limited/CrossWorks for ARM 2.3/lib/libc_v7em_t_le_eabi.a(libc2_asm.o)
                0x00442b10                setjmp
 .text.libc.strcpy
                0x00442b1c       0x44 C:/Program Files/Rowley Associates Limited/CrossWorks for ARM 2.3/lib/libc_v7em_t_le_eabi.a(libc2_asm.o)
                0x00442b1c                strcpy
 .text.libc.strcmp
                0x00442b60       0x50 C:/Program Files/Rowley Associates Limited/CrossWorks for ARM 2.3/lib/libc_v7em_t_le_eabi.a(libc2_asm.o)
                0x00442b60                strcmp
 .text.libc.strlen
                0x00442bb0       0x60 C:/Program Files/Rowley Associates Limited/CrossWorks for ARM 2.3/lib/libc_v7em_t_le_eabi.a(libc2_asm.o)
                0x00442bb0                strlen
 .text.libc.__vfprintf_double_long_long
                0x00442c10     0x1088 C:/Program Files/Rowley Associates Limited/CrossWorks for ARM 2.3/lib/libc_v7em_t_le_eabi.a(__vfprintf_double_long_long.o)
                0x00442c10                __vfprintf_double_long_long
 .text.libc.__ungetc
                0x00443c98       0x20 C:/Program Files/Rowley Associates Limited/CrossWorks for ARM 2.3/lib/libc_v7em_t_le_eabi.a(__vfscanf_double_long_long.o)
 .text.libc.rd_int
                0x00443cb8      0x188 C:/Program Files/Rowley Associates Limited/CrossWorks for ARM 2.3/lib/libc_v7em_t_le_eabi.a(__vfscanf_double_long_long.o)
 .text.libc.__vfscanf_double_long_long
                0x00443e40      0x6f8 C:/Program Files/Rowley Associates Limited/CrossWorks for ARM 2.3/lib/libc_v7em_t_le_eabi.a(__vfscanf_double_long_long.o)
                0x00443e40                __vfscanf_double_long_long
 .text.libdebugio.__do_debug_operation_mempoll
                0x00444538       0x3c C:/Program Files/Rowley Associates Limited/CrossWorks for ARM 2.3/lib/libdebugio_v7em_t_le_eabi.a(libdebugio.o)
                0x00444538                __do_debug_operation_mempoll
 .text.libc.debug_printf
                0x00444574       0x14 C:/Program Files/Rowley Associates Limited/CrossWorks for ARM 2.3/lib/libdebugio_v7em_t_le_eabi.a(libdebugio_asm.o)
                0x00444574                debug_printf
 .text.libc.printf
                0x00444588       0x44 C:/Program Files/Rowley Associates Limited/CrossWorks for ARM 2.3/lib/libc_targetio_impl_v7em_t_le_eabi.a(libc_targetio_impl.o)
                0x00444588                printf
 .text.libc.puts
                0x004445cc       0x44 C:/Program Files/Rowley Associates Limited/CrossWorks for ARM 2.3/lib/libc_targetio_impl_v7em_t_le_eabi.a(libc_targetio_impl.o)
                0x004445cc                puts
 .text.libc.time
                0x00444610       0x28 C:/Program Files/Rowley Associates Limited/CrossWorks for ARM 2.3/lib/libc_targetio_impl_v7em_t_le_eabi.a(libc_targetio_impl.o)
                0x00444610                time
 .text.libc.__errno
                0x00444638        0xc C:/Program Files/Rowley Associates Limited/CrossWorks for ARM 2.3/lib/libc_user_libc_v7em_t_le_eabi.a(user_libc.o)
                0x00444638                __errno
 .text.libc.__heap_lock
                0x00444644        0x4 C:/Program Files/Rowley Associates Limited/CrossWorks for ARM 2.3/lib/libc_user_libc_v7em_t_le_eabi.a(user_libc.o)
                0x00444644                __heap_lock
 .text.libc.__heap_unlock
                0x00444648        0x4 C:/Program Files/Rowley Associates Limited/CrossWorks for ARM 2.3/lib/libc_user_libc_v7em_t_le_eabi.a(user_libc.o)
                0x00444648                __heap_unlock
 .text.libc.__printf_lock
                0x0044464c        0x4 C:/Program Files/Rowley Associates Limited/CrossWorks for ARM 2.3/lib/libc_user_libc_v7em_t_le_eabi.a(user_libc.o)
                0x0044464c                __printf_lock
 .text.libc.__printf_unlock
                0x00444650        0x4 C:/Program Files/Rowley Associates Limited/CrossWorks for ARM 2.3/lib/libc_user_libc_v7em_t_le_eabi.a(user_libc.o)
                0x00444650                __printf_unlock
 .text.libc.__debug_io_lock
                0x00444654        0x4 C:/Program Files/Rowley Associates Limited/CrossWorks for ARM 2.3/lib/libc_user_libc_v7em_t_le_eabi.a(user_libc.o)
                0x00444654                __debug_io_lock
 .text.libc.__debug_io_unlock
                0x00444658        0x4 C:/Program Files/Rowley Associates Limited/CrossWorks for ARM 2.3/lib/libc_user_libc_v7em_t_le_eabi.a(user_libc.o)
                0x00444658                __debug_io_unlock
                0x0044465c                __text_end__ = (__text_start__ + SIZEOF (.text))
                0x0044465c                __text_load_end__ = __text_end__

.vfp11_veneer   0x00000000        0x0
 .vfp11_veneer  0x00000000        0x0 linker stubs

.v4_bx          0x00000000        0x0
 .v4_bx         0x00000000        0x0 linker stubs
                0x00000001                . = ASSERT (((__text_end__ >= __FLASH_segment_start__) && (__text_end__ <= __FLASH_segment_end__)), error: .text is too large to fit in FLASH memory segment)
                0x0044465c                __dtors_load_start__ = ALIGN (__text_end__, 0x4)

.dtors          0x0044465c        0x0
                0x0044465c                __dtors_start__ = .
 *(SORT(.dtors.*))
 *(.dtors)
 *(.fini_array .fini_array.*)
                0x0044465c                __dtors_end__ = (__dtors_start__ + SIZEOF (.dtors))
                0x0044465c                __dtors_load_end__ = __dtors_end__
                0x00000001                . = ASSERT (((__dtors_end__ >= __FLASH_segment_start__) && (__dtors_end__ <= __FLASH_segment_end__)), error: .dtors is too large to fit in FLASH memory segment)
                0x0044465c                __ctors_load_start__ = ALIGN (__dtors_end__, 0x4)

.ctors          0x0044465c        0x0
                0x0044465c                __ctors_start__ = .
 *(SORT(.ctors.*))
 *(.ctors)
 *(.init_array .init_array.*)
                0x0044465c                __ctors_end__ = (__ctors_start__ + SIZEOF (.ctors))
                0x0044465c                __ctors_load_end__ = __ctors_end__
                0x00000001                . = ASSERT (((__ctors_end__ >= __FLASH_segment_start__) && (__ctors_end__ <= __FLASH_segment_end__)), error: .ctors is too large to fit in FLASH memory segment)
                0x0044465c                __rodata_load_start__ = ALIGN (__ctors_end__, 0x4)

.rodata         0x0044465c     0x74f4
                0x0044465c                __rodata_start__ = .
 *(.rodata .rodata.* .gnu.linkonce.r.*)
 .rodata        0x0044465c      0x480 THUMB Flash Debug 160k/main.o
 .rodata        0x00444adc      0x530 THUMB Flash Debug 160k/HAL.o
 .rodata.Resources
                0x0044500c       0x34 THUMB Flash Debug 160k/HAL.o
 .rodata        0x00445040       0xc8 THUMB Flash Debug 160k/HALW5500.o
 .rodata        0x00445108       0x38 THUMB Flash Debug 160k/HALHSMCI.o
 .rodata        0x00445140       0xe8 THUMB Flash Debug 160k/ZeroConf.o
 .rodata        0x00445228       0x88 THUMB Flash Debug 160k/Memory.o
 .rodata        0x004452b0      0x1c8 THUMB Flash Debug 160k/TFTPBoot.o
 .rodata        0x00445478       0x18 THUMB Flash Debug 160k/SysLog.o
 .rodata.LuaConfigUsage
                0x00445490        0xc THUMB Flash Debug 160k/LuaLibPin.o
 .rodata.LuaSetUsage
                0x0044549c        0xc THUMB Flash Debug 160k/LuaLibPin.o
 .rodata        0x004454a8       0x38 THUMB Flash Debug 160k/LuaLibPin.o
 .rodata.LuaGetUsage
                0x004454e0        0xc THUMB Flash Debug 160k/LuaLibPin.o
 .rodata.LuaGetNamesUsage
                0x004454ec        0x4 THUMB Flash Debug 160k/LuaLibPin.o
 .rodata.Lib    0x004454f0       0x60 THUMB Flash Debug 160k/LuaLibPin.o
 .rodata        0x00445550      0x29c THUMB Flash Debug 160k/LuaLibUtils.o
 .rodata.LuaOpenUsage
                0x004457ec       0x10 THUMB Flash Debug 160k/LuaLibSerial.o
 .rodata.LuaCloseUsage
                0x004457fc        0x4 THUMB Flash Debug 160k/LuaLibSerial.o
 .rodata.LuaSendUsage
                0x00445800       0x10 THUMB Flash Debug 160k/LuaLibSerial.o
 .rodata.LuaRecvUsage
                0x00445810        0xc THUMB Flash Debug 160k/LuaLibSerial.o
 .rodata        0x0044581c       0x30 THUMB Flash Debug 160k/LuaLibSerial.o
 .rodata.Lib    0x0044584c       0x60 THUMB Flash Debug 160k/LuaLibSerial.o
 .rodata.LuaInfoUsage
                0x004458ac        0x4 THUMB Flash Debug 160k/LuaLibSys.o
 .rodata        0x004458b0      0x18c THUMB Flash Debug 160k/LuaLibSys.o
 .rodata.LuaDescriptionUsage
                0x00445a3c        0x4 THUMB Flash Debug 160k/LuaLibSys.o
 .rodata.LuaStopUsage
                0x00445a40        0x4 THUMB Flash Debug 160k/LuaLibSys.o
 .rodata.LuaRestartUsage
                0x00445a44        0x4 THUMB Flash Debug 160k/LuaLibSys.o
 .rodata.LuaRebootUsage
                0x00445a48        0x4 THUMB Flash Debug 160k/LuaLibSys.o
 .rodata.LuaNormUsage
                0x00445a4c       0x18 THUMB Flash Debug 160k/LuaLibSys.o
 .rodata.LuaSleepUsage
                0x00445a64        0x8 THUMB Flash Debug 160k/LuaLibSys.o
 .rodata.LuaSetStopOnErrorUsage
                0x00445a6c        0x4 THUMB Flash Debug 160k/LuaLibSys.o
 .rodata.LuaIsTickedUsage
                0x00445a70       0x10 THUMB Flash Debug 160k/LuaLibSys.o
 .rodata.LuaShowUsage
                0x00445a80        0x4 THUMB Flash Debug 160k/LuaLibSys.o
 .rodata.LuaWatchdogInitUsage
                0x00445a84       0x10 THUMB Flash Debug 160k/LuaLibSys.o
 .rodata.LuaWatchdogServeUsage
                0x00445a94        0x4 THUMB Flash Debug 160k/LuaLibSys.o
 .rodata.Lib    0x00445a98       0xe0 THUMB Flash Debug 160k/LuaLibSys.o
 .rodata.LuaSendUsage
                0x00445b78       0x24 THUMB Flash Debug 160k/LuaLibWS2812.o
 .rodata        0x00445b9c       0xc8 THUMB Flash Debug 160k/LuaLibWS2812.o
 .rodata.Lib    0x00445c64       0x30 THUMB Flash Debug 160k/LuaLibWS2812.o
 .rodata        0x00445c94      0x418 THUMB Flash Debug 160k/LuaLibW5500.o
 .rodata.LuaSetIPUsage
                0x004460ac       0x10 THUMB Flash Debug 160k/LuaLibW5500.o
 .rodata.LuaSetGatewayUsage
                0x004460bc       0x10 THUMB Flash Debug 160k/LuaLibW5500.o
 .rodata.LuaServeUsage
                0x004460cc        0x4 THUMB Flash Debug 160k/LuaLibW5500.o
 .rodata.LuaStringToIPUsage
                0x004460d0        0x8 THUMB Flash Debug 160k/LuaLibW5500.o
 .rodata.LuaIPToStringUsage
                0x004460d8        0x8 THUMB Flash Debug 160k/LuaLibW5500.o
 .rodata.LuaStatusToStringUsage
                0x004460e0        0xc THUMB Flash Debug 160k/LuaLibW5500.o
 .rodata.LuaEventsToStringUsage
                0x004460ec        0xc THUMB Flash Debug 160k/LuaLibW5500.o
 .rodata.LuaCreateUsage
                0x004460f8       0x24 THUMB Flash Debug 160k/LuaLibW5500.o
 .rodata.LuaOpenUsage
                0x0044611c       0x10 THUMB Flash Debug 160k/LuaLibW5500.o
 .rodata.LuaListenUsage
                0x0044612c       0x10 THUMB Flash Debug 160k/LuaLibW5500.o
 .rodata.LuaConnectUsage
                0x0044613c       0x1c THUMB Flash Debug 160k/LuaLibW5500.o
 .rodata.LuaDisconnectUsage
                0x00446158       0x10 THUMB Flash Debug 160k/LuaLibW5500.o
 .rodata.LuaSendUsage
                0x00446168       0x38 THUMB Flash Debug 160k/LuaLibW5500.o
 .rodata.LuaRecvUsage
                0x004461a0       0x30 THUMB Flash Debug 160k/LuaLibW5500.o
 .rodata.LuaSysLogUsage
                0x004461d0       0x14 THUMB Flash Debug 160k/LuaLibW5500.o
 .rodata.Lib    0x004461e4      0x180 THUMB Flash Debug 160k/LuaLibW5500.o
 .rodata.LuaEncodeUsage
                0x00446364        0x8 THUMB Flash Debug 160k/LuaLibBASE64.o
 .rodata.LuaDecodeUsage
                0x0044636c        0x8 THUMB Flash Debug 160k/LuaLibBASE64.o
 .rodata        0x00446374       0x4c THUMB Flash Debug 160k/LuaLibBASE64.o
 .rodata.Lib    0x004463c0       0x40 THUMB Flash Debug 160k/LuaLibBASE64.o
 .rodata.t.5971
                0x00446400       0xe0 THUMB Flash Debug 160k/LuaLibBASE64.o
 .rodata.t.5967
                0x004464e0       0x40 THUMB Flash Debug 160k/LuaLibBASE64.o
 .rodata.LuaOpenUsage
                0x00446520       0x10 THUMB Flash Debug 160k/LuaLibI2C.o
 .rodata.LuaCloseUsage
                0x00446530        0x4 THUMB Flash Debug 160k/LuaLibI2C.o
 .rodata.LuaExistsUsage
                0x00446534       0x20 THUMB Flash Debug 160k/LuaLibI2C.o
 .rodata.LuaSendUsage
                0x00446554       0x2c THUMB Flash Debug 160k/LuaLibI2C.o
 .rodata.LuaRecvUsage
                0x00446580       0x2c THUMB Flash Debug 160k/LuaLibI2C.o
 .rodata        0x004465ac       0x30 THUMB Flash Debug 160k/LuaLibI2C.o
 .rodata.Lib    0x004465dc       0x70 THUMB Flash Debug 160k/LuaLibI2C.o
 .rodata        0x0044664c      0xa54 THUMB Flash Debug 160k/LuaLibEVE.o
 .rodata.Lib2   0x004470a0      0x2c8 THUMB Flash Debug 160k/LuaLibEVE.o
 .rodata.LuaOpenUsage
                0x00447368       0x10 THUMB Flash Debug 160k/LuaLibEVE.o
 .rodata.LuaCloseUsage
                0x00447378        0x4 THUMB Flash Debug 160k/LuaLibEVE.o
 .rodata.LuaSetUsage
                0x0044737c       0x14 THUMB Flash Debug 160k/LuaLibEVE.o
 .rodata.LuaLoadUsage
                0x00447390       0x20 THUMB Flash Debug 160k/LuaLibEVE.o
 .rodata.Lib    0x004473b0       0x60 THUMB Flash Debug 160k/LuaLibEVE.o
 .rodata        0x00447410       0x24 THUMB Flash Debug 160k/LuaLibJSON.o
 .rodata.LuaOpenUsage
                0x00447434       0x14 THUMB Flash Debug 160k/LuaLibSoftPWM.o
 .rodata.LuaCloseUsage
                0x00447448        0x4 THUMB Flash Debug 160k/LuaLibSoftPWM.o
 .rodata.LuaConfigUsage
                0x0044744c        0xc THUMB Flash Debug 160k/LuaLibSoftPWM.o
 .rodata.LuaSetUsage
                0x00447458       0x2c THUMB Flash Debug 160k/LuaLibSoftPWM.o
 .rodata        0x00447484       0x28 THUMB Flash Debug 160k/LuaLibSoftPWM.o
 .rodata.Lib    0x004474ac       0x60 THUMB Flash Debug 160k/LuaLibSoftPWM.o
 .rodata.LuaOpenUsage
                0x0044750c       0x14 THUMB Flash Debug 160k/LuaLibADC.o
 .rodata.LuaCloseUsage
                0x00447520        0x4 THUMB Flash Debug 160k/LuaLibADC.o
 .rodata.LuaConfigUsage
                0x00447524       0x10 THUMB Flash Debug 160k/LuaLibADC.o
 .rodata.LuaGetUsage
                0x00447534        0xc THUMB Flash Debug 160k/LuaLibADC.o
 .rodata        0x00447540       0x24 THUMB Flash Debug 160k/LuaLibADC.o
 .rodata.Lib    0x00447564       0x60 THUMB Flash Debug 160k/LuaLibADC.o
 .rodata.LuaOpenUsage
                0x004475c4        0x8 THUMB Flash Debug 160k/LuaLibSoftCounter.o
 .rodata.LuaCloseUsage
                0x004475cc        0x4 THUMB Flash Debug 160k/LuaLibSoftCounter.o
 .rodata.LuaConfigUsage
                0x004475d0       0x10 THUMB Flash Debug 160k/LuaLibSoftCounter.o
 .rodata.LuaGetUsage
                0x004475e0        0xc THUMB Flash Debug 160k/LuaLibSoftCounter.o
 .rodata        0x004475ec       0x2c THUMB Flash Debug 160k/LuaLibSoftCounter.o
 .rodata.Lib    0x00447618       0x60 THUMB Flash Debug 160k/LuaLibSoftCounter.o
 .rodata        0x00447678      0x140 THUMB Flash Debug 160k/cn.o
 .rodata.ExCvt  0x004477b8       0x80 THUMB Flash Debug 160k/ff.o
 .rodata.LfnOfs
                0x00447838       0x10 THUMB Flash Debug 160k/ff.o
 .rodata        0x00447848       0x6c THUMB Flash Debug 160k/ff.o
 .rodata.str.4023
                0x004478b4        0xc THUMB Flash Debug 160k/ff.o
 .rodata.Tbl    0x004478c0      0x100 THUMB Flash Debug 160k/unicode.o
 .rodata.tbl_lower.3682
                0x004479c0      0x1e0 THUMB Flash Debug 160k/unicode.o
 .rodata.tbl_upper.3683
                0x00447ba0      0x1e0 THUMB Flash Debug 160k/unicode.o
 .rodata        0x00447d80      0x394 THUMB Flash Debug 160k/FatFsWrapper.o
 .rodata._LCD_WQVGA
                0x00448114       0x18 THUMB Flash Debug 160k/EVE.o
                0x00448114                _LCD_WQVGA
 .rodata        0x0044812c       0x14 THUMB Flash Debug 160k/EVE.o
 .rodata        0x00448140       0x4c THUMB Flash Debug 160k/FFS.o
 .rodata        0x0044818c       0x14 THUMB Flash Debug 160k/lapi.o
 .rodata.version.4683
                0x004481a0        0x8 THUMB Flash Debug 160k/lapi.o
 .rodata        0x004481a8      0x33c THUMB Flash Debug 160k/lauxlib.o
 .rodata        0x004484e4      0x278 THUMB Flash Debug 160k/lbaselib.o
 .rodata.base_funcs
                0x0044875c       0xc8 THUMB Flash Debug 160k/lbaselib.o
 .rodata.opts.4539
                0x00448824       0x24 THUMB Flash Debug 160k/lbaselib.o
 .rodata.optsnum.4540
                0x00448848       0x20 THUMB Flash Debug 160k/lbaselib.o
 .rodata        0x00448868       0x6c THUMB Flash Debug 160k/lcode.o
 .rodata        0x004488d4       0xc4 THUMB Flash Debug 160k/lcorolib.o
 .rodata.co_funcs
                0x00448998       0x40 THUMB Flash Debug 160k/lcorolib.o
 .rodata.luai_ctype_
                0x004489d8      0x104 THUMB Flash Debug 160k/lctype.o
                0x004489d8                luai_ctype_
 .rodata.HOOKKEY
                0x00448adc        0x4 THUMB Flash Debug 160k/ldblib.o
 .rodata        0x00448ae0      0x244 THUMB Flash Debug 160k/ldblib.o
 .rodata.dblib  0x00448d24       0x88 THUMB Flash Debug 160k/ldblib.o
 .rodata.hooknames.4551
                0x00448dac       0x14 THUMB Flash Debug 160k/ldblib.o
 .rodata        0x00448dc0      0x14c THUMB Flash Debug 160k/ldebug.o
 .rodata        0x00448f0c      0x120 THUMB Flash Debug 160k/ldo.o
 .rodata        0x0044902c       0x10 THUMB Flash Debug 160k/ldump.o
 .rodata        0x0044903c       0x2c THUMB Flash Debug 160k/lgc.o
 .rodata        0x00449068       0x48 THUMB Flash Debug 160k/linit.o
 .rodata.loadedlibs
                0x004490b0       0x58 THUMB Flash Debug 160k/linit.o
 .rodata        0x00449108      0x238 THUMB Flash Debug 160k/liolib.o
 .rodata.iolib  0x00449340       0x60 THUMB Flash Debug 160k/liolib.o
 .rodata.flib   0x004493a0       0x50 THUMB Flash Debug 160k/liolib.o
 .rodata.modenames.4741
                0x004493f0       0x10 THUMB Flash Debug 160k/liolib.o
 .rodata.mode.4740
                0x00449400        0xc THUMB Flash Debug 160k/liolib.o
 .rodata.modenames.4732
                0x0044940c       0x10 THUMB Flash Debug 160k/liolib.o
 .rodata.mode.4731
                0x0044941c        0xc THUMB Flash Debug 160k/liolib.o
 .rodata        0x00449428      0x268 THUMB Flash Debug 160k/llex.o
 .rodata.luaX_tokens
                0x00449690       0x94 THUMB Flash Debug 160k/llex.o
 .rodata        0x00449724      0x124 THUMB Flash Debug 160k/lmathlib.o
 .rodata.mathlib
                0x00449848       0xe0 THUMB Flash Debug 160k/lmathlib.o
 .rodata        0x00449928       0x44 THUMB Flash Debug 160k/lmem.o
 .rodata.CLIBS  0x0044996c        0x4 THUMB Flash Debug 160k/loadlib.o
 .rodata        0x00449970      0x2f8 THUMB Flash Debug 160k/loadlib.o
 .rodata.pk_funcs
                0x00449c68       0x40 THUMB Flash Debug 160k/loadlib.o
 .rodata.ll_funcs
                0x00449ca8       0x10 THUMB Flash Debug 160k/loadlib.o
 .rodata.searchers.4605
                0x00449cb8       0x14 THUMB Flash Debug 160k/loadlib.o
 *fill*         0x00449ccc        0x4 00
 .rodata.luaO_nilobject_
                0x00449cd0       0x10 THUMB Flash Debug 160k/lobject.o
                0x00449cd0                luaO_nilobject_
 .rodata        0x00449ce0       0x7c THUMB Flash Debug 160k/lobject.o
 .rodata.log_2.5006
                0x00449d5c      0x100 THUMB Flash Debug 160k/lobject.o
 .rodata.luaP_opmodes
                0x00449e5c       0x30 THUMB Flash Debug 160k/lopcodes.o
                0x00449e5c                luaP_opmodes
 .rodata        0x00449e8c      0x188 THUMB Flash Debug 160k/loslib.o
 .rodata.syslib
                0x0044a014       0x60 THUMB Flash Debug 160k/loslib.o
 .rodata.catnames.4623
                0x0044a074       0x1c THUMB Flash Debug 160k/loslib.o
 .rodata.cat.4622
                0x0044a090       0x18 THUMB Flash Debug 160k/loslib.o
 .rodata.options.4591
                0x0044a0a8       0x18 THUMB Flash Debug 160k/loslib.o
 .rodata        0x0044a0c0      0x284 THUMB Flash Debug 160k/lparser.o
 .rodata.priority
                0x0044a344       0x2c THUMB Flash Debug 160k/lparser.o
 .rodata        0x0044a370       0x14 THUMB Flash Debug 160k/lstate.o
 .rodata        0x0044a384      0x4f0 THUMB Flash Debug 160k/lstrlib.o
 .rodata.nativeendian
                0x0044a874        0x4 THUMB Flash Debug 160k/lstrlib.o
 .rodata.strlib
                0x0044a878       0x90 THUMB Flash Debug 160k/lstrlib.o
 .rodata.dummynode_
                0x0044a908       0x20 THUMB Flash Debug 160k/ltable.o
 .rodata        0x0044a928       0x50 THUMB Flash Debug 160k/ltable.o
 .rodata        0x0044a978      0x130 THUMB Flash Debug 160k/ltablib.o
 .rodata.tab_funcs
                0x0044aaa8       0x40 THUMB Flash Debug 160k/ltablib.o
 .rodata.udatatypename
                0x0044aae8        0xc THUMB Flash Debug 160k/ltm.o
 .rodata        0x0044aaf4      0x14c THUMB Flash Debug 160k/ltm.o
 .rodata.luaT_typenames_
                0x0044ac40       0x2c THUMB Flash Debug 160k/ltm.o
                0x0044ac40                luaT_typenames_
 .rodata.luaT_eventname.4606
                0x0044ac6c       0x60 THUMB Flash Debug 160k/ltm.o
 .rodata        0x0044accc       0xfc THUMB Flash Debug 160k/lundump.o
 .rodata        0x0044adc8      0x118 THUMB Flash Debug 160k/lutf8lib.o
 .rodata        0x0044aee0      0x11c THUMB Flash Debug 160k/lvm.o
 .rodata        0x0044affc      0x628 THUMB Flash Debug 160k/lua_cjson.o
 .rodata        0x0044b624       0xf0 THUMB Flash Debug 160k/strbuf.o
 .rodata        0x0044b714       0xbc THUMB Flash Debug 160k/fpconv.o
 .rodata.libc.__float64_infinity
                0x0044b7d0        0x8 C:/Program Files/Rowley Associates Limited/CrossWorks for ARM 2.3/lib/libm_v7em_t_le_eabi.a(libm_asm.o)
                0x0044b7d0                __float64_infinity
 .rodata.libc.__float64_nan
                0x0044b7d8        0x8 C:/Program Files/Rowley Associates Limited/CrossWorks for ARM 2.3/lib/libm_v7em_t_le_eabi.a(libm_asm.o)
                0x0044b7d8                __float64_nan
 .rodata.libc.__asinacos_a
                0x0044b7e0       0x10 C:/Program Files/Rowley Associates Limited/CrossWorks for ARM 2.3/lib/libm_v7em_t_le_eabi.a(libm2.o)
 .rodata.libc.__asinacos_b
                0x0044b7f0       0x10 C:/Program Files/Rowley Associates Limited/CrossWorks for ARM 2.3/lib/libm_v7em_t_le_eabi.a(libm2.o)
 .rodata.libc.atan_a
                0x0044b800       0x20 C:/Program Files/Rowley Associates Limited/CrossWorks for ARM 2.3/lib/libm_v7em_t_le_eabi.a(libm2.o)
 .rodata.libc.__hex_lc
                0x0044b820       0x10 C:/Program Files/Rowley Associates Limited/CrossWorks for ARM 2.3/lib/libc_v7em_t_le_eabi.a(libc2.o)
                0x0044b820                __hex_lc
 .rodata.libc.year_lengths
                0x0044b830        0x8 C:/Program Files/Rowley Associates Limited/CrossWorks for ARM 2.3/lib/libc_v7em_t_le_eabi.a(libc2.o)
 .rodata.libc.invalid
                0x0044b838        0xc C:/Program Files/Rowley Associates Limited/CrossWorks for ARM 2.3/lib/libc_v7em_t_le_eabi.a(libc2.o)
 .rodata.libc.str1.4
                0x0044b844      0x125 C:/Program Files/Rowley Associates Limited/CrossWorks for ARM 2.3/lib/libc_v7em_t_le_eabi.a(libc2.o)
                                0x138 (size before relaxing)
 *fill*         0x0044b969        0x3 00
 .rodata.libc.__RAL_mon_lengths
                0x0044b96c       0x60 C:/Program Files/Rowley Associates Limited/CrossWorks for ARM 2.3/lib/libc_v7em_t_le_eabi.a(libc2.o)
 .rodata.libc.month_names
                0x0044b9cc       0x34 C:/Program Files/Rowley Associates Limited/CrossWorks for ARM 2.3/lib/libc_v7em_t_le_eabi.a(libc2.o)
 .rodata.libc.power
                0x0044ba00       0x48 C:/Program Files/Rowley Associates Limited/CrossWorks for ARM 2.3/lib/libc_v7em_t_le_eabi.a(libc2.o)
 .rodata.libc.__hex_uc
                0x0044ba48       0x10 C:/Program Files/Rowley Associates Limited/CrossWorks for ARM 2.3/lib/libc_v7em_t_le_eabi.a(libc2.o)
                0x0044ba48                __hex_uc
 .rodata.libc.day_names
                0x0044ba58       0x20 C:/Program Files/Rowley Associates Limited/CrossWorks for ARM 2.3/lib/libc_v7em_t_le_eabi.a(libc2.o)
 .rodata.libc.str1.4
                0x0044ba78       0x34 C:/Program Files/Rowley Associates Limited/CrossWorks for ARM 2.3/lib/libc_v7em_t_le_eabi.a(__vfprintf_double_long_long.o)
 *fill*         0x0044baac        0x4 00
 .rodata.libc.ipow10
                0x0044bab0       0xa0 C:/Program Files/Rowley Associates Limited/CrossWorks for ARM 2.3/lib/libc_v7em_t_le_eabi.a(__vfprintf_double_long_long.o)
                0x0044bb50                __rodata_end__ = (__rodata_start__ + SIZEOF (.rodata))
                0x0044bb50                __rodata_load_end__ = __rodata_end__
                0x00000001                . = ASSERT (((__rodata_end__ >= __FLASH_segment_start__) && (__rodata_end__ <= __FLASH_segment_end__)), error: .rodata is too large to fit in FLASH memory segment)
                0x0044bb50                __ARM.exidx_load_start__ = ALIGN (__rodata_end__, 0x4)

.ARM.exidx      0x0044bb50        0x0
                0x0044bb50                __ARM.exidx_start__ = .
                0x0044bb50                __exidx_start = __ARM.exidx_start__
 *(.ARM.exidx .ARM.exidx.*)
                0x0044bb50                __ARM.exidx_end__ = (__ARM.exidx_start__ + SIZEOF (.ARM.exidx))
                0x0044bb50                __exidx_end = __ARM.exidx_end__
                0x0044bb50                __ARM.exidx_load_end__ = __ARM.exidx_end__
                0x00000001                . = ASSERT (((__ARM.exidx_end__ >= __FLASH_segment_start__) && (__ARM.exidx_end__ <= __FLASH_segment_end__)), error: .ARM.exidx is too large to fit in FLASH memory segment)
                0x0044bb50                __fast_load_start__ = ALIGN (__ARM.exidx_end__, 0x4)

.fast           0x20000000       0xec load address 0x0044bb50
                0x20000000                __fast_start__ = .
 *(.fast .fast.*)
 .fast          0x20000000       0x54 THUMB Flash Debug 160k/HAL.o
 .fast          0x20000054       0x98 THUMB Flash Debug 160k/WS2812.o
                0x200000ec                __fast_end__ = (__fast_start__ + SIZEOF (.fast))
                0x0044bc3c                __fast_load_end__ = (__fast_load_start__ + SIZEOF (.fast))
                0x00000001                . = ASSERT (((__fast_load_end__ >= __FLASH_segment_start__) && (__fast_load_end__ <= __FLASH_segment_end__)), error: .fast is too large to fit in FLASH memory segment)

.fast_run       0x20000000       0xec load address 0x0044bb50
                0x20000000                __fast_run_start__ = .
                0x200000ec                . = MAX ((__fast_run_start__ + SIZEOF (.fast)), .)
 *fill*         0x20000000       0xec 00
                0x200000ec                __fast_run_end__ = (__fast_run_start__ + SIZEOF (.fast_run))
                0x200000ec                __fast_run_load_end__ = __fast_run_end__
                0x00000001                . = ASSERT (((__fast_run_end__ >= __RAM_segment_start__) && (__fast_run_end__ <= __RAM_segment_end__)), error: .fast_run is too large to fit in RAM memory segment)
                0x0044bc3c                __data_load_start__ = ALIGN ((__fast_load_start__ + SIZEOF (.fast)), 0x4)

.data           0x200000ec      0x64c load address 0x0044bc3c
                0x200000ec                __data_start__ = .
 *(.data .data.* .gnu.linkonce.d.*)
 .data.ADChannelToPinId
                0x200000ec       0x14 THUMB Flash Debug 160k/HAL.o
 .data.modeNames.6099
                0x20000100       0x24 THUMB Flash Debug 160k/HAL.o
 .data.parityNames.6100
                0x20000124       0x18 THUMB Flash Debug 160k/HAL.o
 .data.sock_any_port
                0x2000013c        0x2 THUMB Flash Debug 160k/socket.o
 *fill*         0x2000013e        0x2 00
 .data.WIZCHIP  0x20000140       0x20 THUMB Flash Debug 160k/wizchip_conf.o
                0x20000140                WIZCHIP
 .data.stopOnError
                0x20000160        0x1 THUMB Flash Debug 160k/LuaLibUtils.o
                0x20000160                stopOnError
 *fill*         0x20000161        0x3 00
 .data.LuaUtils_IntroduceUsage
                0x20000164        0x4 THUMB Flash Debug 160k/LuaLibUtils.o
 .data.strings.6635
                0x20000168       0x1c THUMB Flash Debug 160k/LuaLibEVE.o
 .data.strings.6624
                0x20000184       0x24 THUMB Flash Debug 160k/LuaLibEVE.o
 .data.strings.6529
                0x200001a8       0x28 THUMB Flash Debug 160k/LuaLibEVE.o
 .data.strings.6523
                0x200001d0       0x1c THUMB Flash Debug 160k/LuaLibEVE.o
 .data.strings.6480
                0x200001ec       0x34 THUMB Flash Debug 160k/LuaLibEVE.o
 .data.strings.6470
                0x20000220       0x24 THUMB Flash Debug 160k/LuaLibEVE.o
 .data.stdout   0x20000244        0x4 THUMB Flash Debug 160k/FatFsWrapper.o
                0x20000244                stdout
 .data.stderr   0x20000248        0x4 THUMB Flash Debug 160k/FatFsWrapper.o
                0x20000248                stderr
 .data.once     0x2000024c        0x1 THUMB Flash Debug 160k/EVE.o
 *fill*         0x2000024d        0x3 00
 .data.funcs    0x20000250       0x38 THUMB Flash Debug 160k/lutf8lib.o
 .data.limits.4466
                0x20000288       0x10 THUMB Flash Debug 160k/lutf8lib.o
 .data.json_token_type_name
                0x20000298       0x3c THUMB Flash Debug 160k/lua_cjson.o
 .data.char2escape
                0x200002d4      0x400 THUMB Flash Debug 160k/lua_cjson.o
 .data.options.4820
                0x200006d4       0x10 THUMB Flash Debug 160k/lua_cjson.o
 .data.bool_options.4795
                0x200006e4        0xc THUMB Flash Debug 160k/lua_cjson.o
 .data.locale_decimal_point
                0x200006f0        0x1 THUMB Flash Debug 160k/fpconv.o
 *fill*         0x200006f1        0x3 00
 .data.SystemCoreClock
                0x200006f4        0x4 THUMB Flash Debug 160k/system_sam.o
                0x200006f4                SystemCoreClock
 .data.libc.heap
                0x200006f8        0x4 C:/Program Files/Rowley Associates Limited/CrossWorks for ARM 2.3/lib/libc_v7em_t_le_eabi.a(libc2.o)
 .data.libc.__rand_next
                0x200006fc        0x4 C:/Program Files/Rowley Associates Limited/CrossWorks for ARM 2.3/lib/libc_v7em_t_le_eabi.a(libc2.o)
                0x200006fc                __rand_next
 .data.libc._lconv
                0x20000700       0x38 C:/Program Files/Rowley Associates Limited/CrossWorks for ARM 2.3/lib/libc_v7em_t_le_eabi.a(libc2.o)
                0x20000738                __data_end__ = (__data_start__ + SIZEOF (.data))
                0x0044c288                __data_load_end__ = (__data_load_start__ + SIZEOF (.data))
                0x00000001                . = ASSERT (((__data_load_end__ >= __FLASH_segment_start__) && (__data_load_end__ <= __FLASH_segment_end__)), error: .data is too large to fit in FLASH memory segment)

.data_run       0x200000ec      0x64c load address 0x0044bc3c
                0x200000ec                __data_run_start__ = .
                0x20000738                . = MAX ((__data_run_start__ + SIZEOF (.data)), .)
 *fill*         0x200000ec      0x64c 00
                0x20000738                __data_run_end__ = (__data_run_start__ + SIZEOF (.data_run))
                0x20000738                __data_run_load_end__ = __data_run_end__
                0x00000001                . = ASSERT (((__data_run_end__ >= __RAM_segment_start__) && (__data_run_end__ <= __RAM_segment_end__)), error: .data_run is too large to fit in RAM memory segment)
                0x20000738                __bss_load_start__ = ALIGN (__data_run_end__, 0x4)

.bss            0x20000738     0x1124
                0x20000738                __bss_start__ = .
 *(.bss .bss.* .gnu.linkonce.b.*)
 .bss.fileSystem
                0x20000738      0x468 THUMB Flash Debug 160k/main.o
                0x20000738                fileSystem
 .bss.hal       0x20000ba0       0xe0 THUMB Flash Debug 160k/HAL.o
                0x20000ba0                hal
 .bss.serial    0x20000c80       0x48 THUMB Flash Debug 160k/HAL.o
                0x20000c80                serial
 .bss.i2c       0x20000cc8        0xc THUMB Flash Debug 160k/HAL.o
                0x20000cc8                i2c
 .bss.softPWM   0x20000cd4       0xc8 THUMB Flash Debug 160k/HAL.o
                0x20000cd4                softPWM
 .bss.buffer0A.6053
                0x20000d9c      0x204 THUMB Flash Debug 160k/HAL.o
 .bss.buffer0B.6054
                0x20000fa0      0x204 THUMB Flash Debug 160k/HAL.o
 .bss.buffer1.6055
                0x200011a4       0x40 THUMB Flash Debug 160k/HAL.o
 .bss.buffer2.6056
                0x200011e4       0x40 THUMB Flash Debug 160k/HAL.o
 .bss.bufferP.6013
                0x20001224        0x1 THUMB Flash Debug 160k/HAL.o
 *fill*         0x20001225        0x3 00
 .bss.buffer.6012
                0x20001228       0xc8 THUMB Flash Debug 160k/HAL.o
 .bss.pattern.5898
                0x200012f0        0x4 THUMB Flash Debug 160k/HAL.o
 .bss.netInfo   0x200012f4       0x18 THUMB Flash Debug 160k/HALW5500.o
                0x200012f4                netInfo
 .bss.hsmci     0x2000130c       0x10 THUMB Flash Debug 160k/HALHSMCI.o
                0x2000130c                hsmci
 .bss.sock_io_mode
                0x2000131c        0x2 THUMB Flash Debug 160k/socket.o
 .bss.sock_is_sending
                0x2000131e        0x2 THUMB Flash Debug 160k/socket.o
 .bss.sock_remained_size
                0x20001320       0x10 THUMB Flash Debug 160k/socket.o
 .bss.sock_pack_info
                0x20001330        0x8 THUMB Flash Debug 160k/socket.o
 .bss._DNS_     0x20001338        0x4 THUMB Flash Debug 160k/wizchip_conf.o
 .bss._DHCP_    0x2000133c        0x1 THUMB Flash Debug 160k/wizchip_conf.o
 *fill*         0x2000133d        0x3 00
 .bss.memory    0x20001340       0x1c THUMB Flash Debug 160k/Memory.o
                0x20001340                memory
 .bss.sysLog    0x2000135c      0x10c THUMB Flash Debug 160k/SysLog.o
                0x2000135c                sysLog
 .bss.w5500     0x20001468       0x8c THUMB Flash Debug 160k/LuaLibW5500.o
                0x20001468                w5500
 .bss.s.7079    0x200014f4       0x20 THUMB Flash Debug 160k/LuaLibW5500.o
 .bss.div.7053  0x20001514        0x1 THUMB Flash Debug 160k/LuaLibW5500.o
 *fill*         0x20001515        0x3 00
 .bss.cn        0x20001518       0xa8 THUMB Flash Debug 160k/cn.o
                0x20001518                cn
 .bss.FatFs     0x200015c0        0xc THUMB Flash Debug 160k/ff.o
 .bss.Fsid      0x200015cc        0x2 THUMB Flash Debug 160k/ff.o
 .bss.CurrVol   0x200015ce        0x1 THUMB Flash Debug 160k/ff.o
 *fill*         0x200015cf        0x1 00
 .bss.stdin     0x200015d0        0x4 THUMB Flash Debug 160k/FatFsWrapper.o
                0x200015d0                stdin
 .bss.buffer.6126
                0x200015d4       0x10 THUMB Flash Debug 160k/FatFsWrapper.o
 .bss.eve       0x200015e4        0x4 THUMB Flash Debug 160k/EVE.o
                0x200015e4                eve
 .bss.ffs       0x200015e8      0x23c THUMB Flash Debug 160k/FFS.o
                0x200015e8                ffs
 .bss.libc.__crt_get_time_of_day
                0x20001824        0x4 C:/Program Files/Rowley Associates Limited/CrossWorks for ARM 2.3/lib/libc_v7em_t_le_eabi.a(libc2.o)
                0x20001824                __crt_get_time_of_day
 .bss.libc.__format_extender
                0x20001828        0x4 C:/Program Files/Rowley Associates Limited/CrossWorks for ARM 2.3/lib/libc_v7em_t_le_eabi.a(libc2.o)
                0x20001828                __format_extender
 .bss.libc._tm  0x2000182c       0x24 C:/Program Files/Rowley Associates Limited/CrossWorks for ARM 2.3/lib/libc_v7em_t_le_eabi.a(libc2.o)
 .bss.libdebugio.dbgCommWord
                0x20001850        0x4 C:/Program Files/Rowley Associates Limited/CrossWorks for ARM 2.3/lib/libdebugio_v7em_t_le_eabi.a(libdebugio.o)
                0x20001850                dbgCommWord
 .bss.libdebugio.dbgCntrlWord_mempoll
                0x20001854        0x4 C:/Program Files/Rowley Associates Limited/CrossWorks for ARM 2.3/lib/libdebugio_v7em_t_le_eabi.a(libdebugio.o)
                0x20001854                dbgCntrlWord_mempoll
 .bss.libc.errno
                0x20001858        0x4 C:/Program Files/Rowley Associates Limited/CrossWorks for ARM 2.3/lib/libc_user_libc_v7em_t_le_eabi.a(user_libc.o)
 *(COMMON)
                0x2000185c                __bss_end__ = (__bss_start__ + SIZEOF (.bss))
                0x2000185c                __bss_load_end__ = __bss_end__
                0x00000001                . = ASSERT (((__bss_end__ >= __RAM_segment_start__) && (__bss_end__ <= __RAM_segment_end__)), error: .bss is too large to fit in RAM memory segment)
                0x2000185c                __non_init_load_start__ = ALIGN (__bss_end__, 0x4)

.non_init       0x2000185c        0x0
                0x2000185c                __non_init_start__ = .
 *(.non_init .non_init.*)
                0x2000185c                __non_init_end__ = (__non_init_start__ + SIZEOF (.non_init))
                0x2000185c                __non_init_load_end__ = __non_init_end__
                0x00000001                . = ASSERT (((__non_init_end__ >= __RAM_segment_start__) && (__non_init_end__ <= __RAM_segment_end__)), error: .non_init is too large to fit in RAM memory segment)
                0x2000185c                __heap_load_start__ = ALIGN (__non_init_end__, 0x4)

.heap           0x2000185c    0x1d4c0
                0x2000185c                __heap_start__ = .
 *(.heap .heap.*)
                0x2001ed1c                . = ALIGN (MAX ((__heap_start__ + __HEAPSIZE__), .), 0x4)
 *fill*         0x2000185c    0x1d4c0 00
                0x2001ed1c                __heap_end__ = (__heap_start__ + SIZEOF (.heap))
                0x2001ed1c                __heap_load_end__ = __heap_end__
                0x00000001                . = ASSERT (((__heap_end__ >= __RAM_segment_start__) && (__heap_end__ <= __RAM_segment_end__)), error: .heap is too large to fit in RAM memory segment)
                0x2001ed1c                __stack_load_start__ = ALIGN (__heap_end__, 0x4)

.stack          0x2001ed1c     0x88b8
                0x2001ed1c                __stack_start__ = .
 *(.stack .stack.*)
                0x200275d4                . = ALIGN (MAX ((__stack_start__ + __STACKSIZE__), .), 0x4)
 *fill*         0x2001ed1c     0x88b8 00
                0x200275d4                __stack_end__ = (__stack_start__ + SIZEOF (.stack))
                0x200275d4                __stack_load_end__ = __stack_end__
                0x00000001                . = ASSERT (((__stack_end__ >= __RAM_segment_start__) && (__stack_end__ <= __RAM_segment_end__)), error: .stack is too large to fit in RAM memory segment)
                0x200275d4                __stack_process_load_start__ = ALIGN (__stack_end__, 0x4)

.stack_process  0x200275d4        0x0
                0x200275d4                __stack_process_start__ = .
 *(.stack_process .stack_process.*)
                0x200275d4                . = ALIGN (MAX ((__stack_process_start__ + __STACKSIZE_PROCESS__), .), 0x4)
                0x200275d4                __stack_process_end__ = (__stack_process_start__ + SIZEOF (.stack_process))
                0x200275d4                __stack_process_load_end__ = __stack_process_end__
                0x00000001                . = ASSERT (((__stack_process_end__ >= __RAM_segment_start__) && (__stack_process_end__ <= __RAM_segment_end__)), error: .stack_process is too large to fit in RAM memory segment)
                0x200275d4                __tbss_load_start__ = ALIGN (__stack_process_end__, 0x4)

.tbss           0x200275d4        0x0
                0x200275d4                __tbss_start__ = .
 *(.tbss .tbss.*)
                0x200275d4                __tbss_end__ = (__tbss_start__ + SIZEOF (.tbss))
                0x200275d4                __tbss_load_end__ = __tbss_end__
                0x00000001                . = ASSERT (((__tbss_end__ >= __RAM_segment_start__) && (__tbss_end__ <= __RAM_segment_end__)), error: .tbss is too large to fit in RAM memory segment)
                0x0044c288                __tdata_load_start__ = ALIGN ((__data_load_start__ + SIZEOF (.data)), 0x4)

.tdata          0x200275d4        0x0 load address 0x0044c288
                0x200275d4                __tdata_start__ = .
 *(.tdata .tdata.*)
                0x200275d4                __tdata_end__ = (__tdata_start__ + SIZEOF (.tdata))
                0x0044c288                __tdata_load_end__ = (__tdata_load_start__ + SIZEOF (.tdata))
                0x00000001                . = ASSERT (((__tdata_load_end__ >= __FLASH_segment_start__) && (__tdata_load_end__ <= __FLASH_segment_end__)), error: .tdata is too large to fit in FLASH memory segment)

.tdata_run      0x200275d4        0x0
                0x200275d4                __tdata_run_start__ = .
                0x200275d4                . = MAX ((__tdata_run_start__ + SIZEOF (.tdata)), .)
                0x200275d4                __tdata_run_end__ = (__tdata_run_start__ + SIZEOF (.tdata_run))
                0x200275d4                __tdata_run_load_end__ = __tdata_run_end__
                0x00000001                . = ASSERT (((__tdata_run_end__ >= __RAM_segment_start__) && (__tdata_run_end__ <= __RAM_segment_end__)), error: .tdata_run is too large to fit in RAM memory segment)
                0x0044c288                __text2_load_start__ = ALIGN ((__tdata_load_start__ + SIZEOF (.tdata)), 0x4)

.text2          0x0044c288        0x0
                0x0044c288                __text2_start__ = .
 *(.text2 .text2.*)
                0x0044c288                __text2_end__ = (__text2_start__ + SIZEOF (.text2))
                0x0044c288                __text2_load_end__ = __text2_end__
                0x00000001                . = ASSERT (((__text2_end__ >= __FLASH_segment_start__) && (__text2_end__ <= __FLASH_segment_end__)), error: .text2 is too large to fit in FLASH memory segment)
                0x0044c288                __rodata2_load_start__ = ALIGN (__text2_end__, 0x4)

.rodata2        0x0044c288        0x0
                0x0044c288                __rodata2_start__ = .
 *(.rodata2 .rodata2.*)
                0x0044c288                __rodata2_end__ = (__rodata2_start__ + SIZEOF (.rodata2))
                0x0044c288                __rodata2_load_end__ = __rodata2_end__
                0x00000001                . = ASSERT (((__rodata2_end__ >= __FLASH_segment_start__) && (__rodata2_end__ <= __FLASH_segment_end__)), error: .rodata2 is too large to fit in FLASH memory segment)
                0x0044c288                __data2_load_start__ = ALIGN (__rodata2_end__, 0x4)

.data2          0x200275d4        0x0 load address 0x0044c288
                0x200275d4                __data2_start__ = .
 *(.data2 .data2.*)
                0x200275d4                __data2_end__ = (__data2_start__ + SIZEOF (.data2))
                0x0044c288                __data2_load_end__ = (__data2_load_start__ + SIZEOF (.data2))
                0x0044c288                __FLASH_segment_used_end__ = (ALIGN (__rodata2_end__, 0x4) + SIZEOF (.data2))
                0x00000001                . = ASSERT (((__data2_load_end__ >= __FLASH_segment_start__) && (__data2_load_end__ <= __FLASH_segment_end__)), error: .data2 is too large to fit in FLASH memory segment)

.data2_run      0x200275d4        0x0
                0x200275d4                __data2_run_start__ = .
                0x200275d4                . = MAX ((__data2_run_start__ + SIZEOF (.data2)), .)
                0x200275d4                __data2_run_end__ = (__data2_run_start__ + SIZEOF (.data2_run))
                0x200275d4                __data2_run_load_end__ = __data2_run_end__
                0x00000001                . = ASSERT (((__data2_run_end__ >= __RAM_segment_start__) && (__data2_run_end__ <= __RAM_segment_end__)), error: .data2_run is too large to fit in RAM memory segment)
                0x200275d4                __bss2_load_start__ = ALIGN (__data2_run_end__, 0x4)

.bss2           0x200275d4        0x0
                0x200275d4                __bss2_start__ = .
 *(.bss2 .bss2.*)
                0x200275d4                __bss2_end__ = (__bss2_start__ + SIZEOF (.bss2))
                0x200275d4                __bss2_load_end__ = __bss2_end__
                0x200275d4                __RAM_segment_used_end__ = (ALIGN (__data2_run_end__, 0x4) + SIZEOF (.bss2))
                0x00000001                . = ASSERT (((__bss2_end__ >= __RAM_segment_start__) && (__bss2_end__ <= __RAM_segment_end__)), error: .bss2 is too large to fit in RAM memory segment)
START GROUP
LOAD THUMB Flash Debug 160k/main.o
LOAD THUMB Flash Debug 160k/HAL.o
LOAD THUMB Flash Debug 160k/HALW5500.o
LOAD THUMB Flash Debug 160k/HALLIS.o
LOAD THUMB Flash Debug 160k/HALHSMCI.o
LOAD THUMB Flash Debug 160k/w5500.o
LOAD THUMB Flash Debug 160k/socket.o
LOAD THUMB Flash Debug 160k/wizchip_conf.o
LOAD THUMB Flash Debug 160k/dhcp.o
LOAD THUMB Flash Debug 160k/dns.o
LOAD THUMB Flash Debug 160k/ZeroConf.o
LOAD THUMB Flash Debug 160k/Memory.o
LOAD THUMB Flash Debug 160k/TFTPBoot.o
LOAD THUMB Flash Debug 160k/SysLog.o
LOAD THUMB Flash Debug 160k/ATSHA204.o
LOAD THUMB Flash Debug 160k/LuaLibPin.o
LOAD THUMB Flash Debug 160k/LuaLibUtils.o
LOAD THUMB Flash Debug 160k/LuaLibSerial.o
LOAD THUMB Flash Debug 160k/LuaLibSys.o
LOAD THUMB Flash Debug 160k/LuaLibWS2812.o
LOAD THUMB Flash Debug 160k/LuaLibW5500.o
LOAD THUMB Flash Debug 160k/LuaLibSPI.o
LOAD THUMB Flash Debug 160k/LuaLibLIS.o
LOAD THUMB Flash Debug 160k/LuaLibBASE64.o
LOAD THUMB Flash Debug 160k/LuaLibI2C.o
LOAD THUMB Flash Debug 160k/LuaLibEVE.o
LOAD THUMB Flash Debug 160k/LuaLibGYRDisplay.o
LOAD THUMB Flash Debug 160k/LuaLibJSON.o
LOAD THUMB Flash Debug 160k/LuaLibSoftPWM.o
LOAD THUMB Flash Debug 160k/LuaLibADC.o
LOAD THUMB Flash Debug 160k/LuaLibSoftCounter.o
LOAD THUMB Flash Debug 160k/cn.o
LOAD THUMB Flash Debug 160k/Modifyer.o
LOAD THUMB Flash Debug 160k/sha204_comm.o
LOAD THUMB Flash Debug 160k/sha204_comm_marshaling.o
LOAD THUMB Flash Debug 160k/sha204_example_main.o
LOAD THUMB Flash Debug 160k/sha204_examples.o
LOAD THUMB Flash Debug 160k/sha204_helper.o
LOAD THUMB Flash Debug 160k/sha204_swi.o
LOAD THUMB Flash Debug 160k/timer_utilities.o
LOAD THUMB Flash Debug 160k/uart_phys.o
LOAD THUMB Flash Debug 160k/WS2812.o
LOAD THUMB Flash Debug 160k/diskio.o
LOAD THUMB Flash Debug 160k/ff.o
LOAD THUMB Flash Debug 160k/unicode.o
LOAD THUMB Flash Debug 160k/FatFsWrapper.o
LOAD THUMB Flash Debug 160k/EVE.o
LOAD THUMB Flash Debug 160k/FFS.o
LOAD THUMB Flash Debug 160k/lapi.o
LOAD THUMB Flash Debug 160k/lauxlib.o
LOAD THUMB Flash Debug 160k/lbaselib.o
LOAD THUMB Flash Debug 160k/lbitlib.o
LOAD THUMB Flash Debug 160k/lcode.o
LOAD THUMB Flash Debug 160k/lcorolib.o
LOAD THUMB Flash Debug 160k/lctype.o
LOAD THUMB Flash Debug 160k/ldblib.o
LOAD THUMB Flash Debug 160k/ldebug.o
LOAD THUMB Flash Debug 160k/ldo.o
LOAD THUMB Flash Debug 160k/ldump.o
LOAD THUMB Flash Debug 160k/lfunc.o
LOAD THUMB Flash Debug 160k/lgc.o
LOAD THUMB Flash Debug 160k/linit.o
LOAD THUMB Flash Debug 160k/liolib.o
LOAD THUMB Flash Debug 160k/llex.o
LOAD THUMB Flash Debug 160k/lmathlib.o
LOAD THUMB Flash Debug 160k/lmem.o
LOAD THUMB Flash Debug 160k/loadlib.o
LOAD THUMB Flash Debug 160k/lobject.o
LOAD THUMB Flash Debug 160k/lopcodes.o
LOAD THUMB Flash Debug 160k/loslib.o
LOAD THUMB Flash Debug 160k/lparser.o
LOAD THUMB Flash Debug 160k/lstate.o
LOAD THUMB Flash Debug 160k/lstring.o
LOAD THUMB Flash Debug 160k/lstrlib.o
LOAD THUMB Flash Debug 160k/ltable.o
LOAD THUMB Flash Debug 160k/ltablib.o
LOAD THUMB Flash Debug 160k/ltm.o
LOAD THUMB Flash Debug 160k/lundump.o
LOAD THUMB Flash Debug 160k/lutf8lib.o
LOAD THUMB Flash Debug 160k/lvm.o
LOAD THUMB Flash Debug 160k/lzio.o
LOAD THUMB Flash Debug 160k/lua_cjson.o
LOAD THUMB Flash Debug 160k/strbuf.o
LOAD THUMB Flash Debug 160k/fpconv.o
LOAD THUMB Flash Debug 160k/thumb_crt0.o
LOAD THUMB Flash Debug 160k/SAM_Startup.o
LOAD THUMB Flash Debug 160k/system_sam.o
LOAD C:/Program Files/Rowley Associates Limited/CrossWorks for ARM 2.3/lib/libcm_v7em_t_le_eabi.a
LOAD C:/Program Files/Rowley Associates Limited/CrossWorks for ARM 2.3/lib/libm_v7em_t_le_eabi.a
LOAD C:/Program Files/Rowley Associates Limited/CrossWorks for ARM 2.3/lib/libc_v7em_t_le_eabi.a
LOAD C:/Program Files/Rowley Associates Limited/CrossWorks for ARM 2.3/lib/libcpp_v7em_t_le_eabi.a
LOAD C:/Program Files/Rowley Associates Limited/CrossWorks for ARM 2.3/lib/libdebugio_v7em_t_le_eabi.a
LOAD C:/Program Files/Rowley Associates Limited/CrossWorks for ARM 2.3/lib/libc_targetio_impl_v7em_t_le_eabi.a
LOAD C:/Program Files/Rowley Associates Limited/CrossWorks for ARM 2.3/lib/libc_user_libc_v7em_t_le_eabi.a
END GROUP
OUTPUT(THUMB Flash Debug 160k/Stamp.elf elf32-littlearm)

.debug_frame    0x00000000    0x14500
 .debug_frame   0x00000000      0x168 THUMB Flash Debug 160k/main.o
 .debug_frame   0x00000168     0x1164 THUMB Flash Debug 160k/HAL.o
 .debug_frame   0x000012cc      0x194 THUMB Flash Debug 160k/HALW5500.o
 .debug_frame   0x00001460      0x1b8 THUMB Flash Debug 160k/HALLIS.o
 .debug_frame   0x00001618      0x3d8 THUMB Flash Debug 160k/HALHSMCI.o
 .debug_frame   0x000019f0      0x19c THUMB Flash Debug 160k/w5500.o
 .debug_frame   0x00001b8c      0x220 THUMB Flash Debug 160k/socket.o
 .debug_frame   0x00001dac      0x55c THUMB Flash Debug 160k/wizchip_conf.o
 .debug_frame   0x00002308      0x354 THUMB Flash Debug 160k/dhcp.o
 .debug_frame   0x0000265c      0x1cc THUMB Flash Debug 160k/dns.o
 .debug_frame   0x00002828       0xc4 THUMB Flash Debug 160k/ZeroConf.o
 .debug_frame   0x000028ec      0x1fc THUMB Flash Debug 160k/Memory.o
 .debug_frame   0x00002ae8      0x21c THUMB Flash Debug 160k/TFTPBoot.o
 .debug_frame   0x00002d04       0x94 THUMB Flash Debug 160k/SysLog.o
 .debug_frame   0x00002d98       0xdc THUMB Flash Debug 160k/ATSHA204.o
 .debug_frame   0x00002e74      0x140 THUMB Flash Debug 160k/LuaLibPin.o
 .debug_frame   0x00002fb4      0x230 THUMB Flash Debug 160k/LuaLibUtils.o
 .debug_frame   0x000031e4       0xf4 THUMB Flash Debug 160k/LuaLibSerial.o
 .debug_frame   0x000032d8      0x27c THUMB Flash Debug 160k/LuaLibSys.o
 .debug_frame   0x00003554       0x94 THUMB Flash Debug 160k/LuaLibWS2812.o
 .debug_frame   0x000035e8      0x5f8 THUMB Flash Debug 160k/LuaLibW5500.o
 .debug_frame   0x00003be0       0xf4 THUMB Flash Debug 160k/LuaLibSPI.o
 .debug_frame   0x00003cd4       0xec THUMB Flash Debug 160k/LuaLibLIS.o
 .debug_frame   0x00003dc0      0x120 THUMB Flash Debug 160k/LuaLibBASE64.o
 .debug_frame   0x00003ee0      0x12c THUMB Flash Debug 160k/LuaLibI2C.o
 .debug_frame   0x0000400c     0x1148 THUMB Flash Debug 160k/LuaLibEVE.o
 .debug_frame   0x00005154       0x68 THUMB Flash Debug 160k/LuaLibGYRDisplay.o
 .debug_frame   0x000051bc       0x3c THUMB Flash Debug 160k/LuaLibJSON.o
 .debug_frame   0x000051f8       0xf0 THUMB Flash Debug 160k/LuaLibSoftPWM.o
 .debug_frame   0x000052e8       0xf4 THUMB Flash Debug 160k/LuaLibADC.o
 .debug_frame   0x000053dc       0xec THUMB Flash Debug 160k/LuaLibSoftCounter.o
 .debug_frame   0x000054c8      0x19c THUMB Flash Debug 160k/cn.o
 .debug_frame   0x00005664       0x90 THUMB Flash Debug 160k/Modifyer.o
 .debug_frame   0x000056f4       0xe8 THUMB Flash Debug 160k/sha204_comm.o
 .debug_frame   0x000057dc      0x2a0 THUMB Flash Debug 160k/sha204_comm_marshaling.o
 .debug_frame   0x00005a7c       0x3c THUMB Flash Debug 160k/sha204_example_main.o
 .debug_frame   0x00005ab8      0x270 THUMB Flash Debug 160k/sha204_examples.o
 .debug_frame   0x00005d28      0x23c THUMB Flash Debug 160k/sha204_helper.o
 .debug_frame   0x00005f64      0x170 THUMB Flash Debug 160k/sha204_swi.o
 .debug_frame   0x000060d4       0x68 THUMB Flash Debug 160k/timer_utilities.o
 .debug_frame   0x0000613c      0x108 THUMB Flash Debug 160k/uart_phys.o
 .debug_frame   0x00006244       0x94 THUMB Flash Debug 160k/WS2812.o
 .debug_frame   0x000062d8       0xe8 THUMB Flash Debug 160k/diskio.o
 .debug_frame   0x000063c0      0xa98 THUMB Flash Debug 160k/ff.o
 .debug_frame   0x00006e58       0x60 THUMB Flash Debug 160k/unicode.o
 .debug_frame   0x00006eb8      0x3e8 THUMB Flash Debug 160k/FatFsWrapper.o
 .debug_frame   0x000072a0      0x32c THUMB Flash Debug 160k/EVE.o
 .debug_frame   0x000075cc      0x10c THUMB Flash Debug 160k/FFS.o
 .debug_frame   0x000076d8      0xe1c THUMB Flash Debug 160k/lapi.o
 .debug_frame   0x000084f4      0x9e8 THUMB Flash Debug 160k/lauxlib.o
 .debug_frame   0x00008edc      0x568 THUMB Flash Debug 160k/lbaselib.o
 .debug_frame   0x00009444       0x3c THUMB Flash Debug 160k/lbitlib.o
 .debug_frame   0x00009480      0xaa0 THUMB Flash Debug 160k/lcode.o
 .debug_frame   0x00009f20      0x1f4 THUMB Flash Debug 160k/lcorolib.o
 .debug_frame   0x0000a114      0x4b4 THUMB Flash Debug 160k/ldblib.o
 .debug_frame   0x0000a5c8      0x5a0 THUMB Flash Debug 160k/ldebug.o
 .debug_frame   0x0000ab68      0x4d0 THUMB Flash Debug 160k/ldo.o
 .debug_frame   0x0000b038      0x278 THUMB Flash Debug 160k/ldump.o
 .debug_frame   0x0000b2b0      0x16c THUMB Flash Debug 160k/lfunc.o
 .debug_frame   0x0000b41c      0x864 THUMB Flash Debug 160k/lgc.o
 .debug_frame   0x0000bc80       0x3c THUMB Flash Debug 160k/linit.o
 .debug_frame   0x0000bcbc      0x7b0 THUMB Flash Debug 160k/liolib.o
 .debug_frame   0x0000c46c      0x484 THUMB Flash Debug 160k/llex.o
 .debug_frame   0x0000c8f0      0x464 THUMB Flash Debug 160k/lmathlib.o
 .debug_frame   0x0000cd54       0x94 THUMB Flash Debug 160k/lmem.o
 .debug_frame   0x0000cde8      0x49c THUMB Flash Debug 160k/loadlib.o
 .debug_frame   0x0000d284      0x2fc THUMB Flash Debug 160k/lobject.o
 .debug_frame   0x0000d580      0x304 THUMB Flash Debug 160k/loslib.o
 .debug_frame   0x0000d884      0xec8 THUMB Flash Debug 160k/lparser.o
 .debug_frame   0x0000e74c      0x29c THUMB Flash Debug 160k/lstate.o
 .debug_frame   0x0000e9e8      0x194 THUMB Flash Debug 160k/lstring.o
 .debug_frame   0x0000eb7c      0x9a0 THUMB Flash Debug 160k/lstrlib.o
 .debug_frame   0x0000f51c      0x478 THUMB Flash Debug 160k/ltable.o
 .debug_frame   0x0000f994      0x258 THUMB Flash Debug 160k/ltablib.o
 .debug_frame   0x0000fbec      0x144 THUMB Flash Debug 160k/ltm.o
 .debug_frame   0x0000fd30      0x2fc THUMB Flash Debug 160k/lundump.o
 .debug_frame   0x0001002c      0x1c0 THUMB Flash Debug 160k/lutf8lib.o
 .debug_frame   0x000101ec      0x38c THUMB Flash Debug 160k/lvm.o
 .debug_frame   0x00010578       0xbc THUMB Flash Debug 160k/lzio.o
 .debug_frame   0x00010634      0x92c THUMB Flash Debug 160k/lua_cjson.o
 .debug_frame   0x00010f60      0x2b8 THUMB Flash Debug 160k/strbuf.o
 .debug_frame   0x00011218      0x138 THUMB Flash Debug 160k/fpconv.o
 .debug_frame   0x00011350       0x78 THUMB Flash Debug 160k/system_sam.o
 .debug_frame   0x000113c8      0x600 C:/Program Files/Rowley Associates Limited/CrossWorks for ARM 2.3/lib/libm_v7em_t_le_eabi.a(libm_asm.o)
 .debug_frame   0x000119c8      0x974 C:/Program Files/Rowley Associates Limited/CrossWorks for ARM 2.3/lib/libm_v7em_t_le_eabi.a(libm2.o)
 .debug_frame   0x0001233c       0xc0 C:/Program Files/Rowley Associates Limited/CrossWorks for ARM 2.3/lib/libm_v7em_t_le_eabi.a(libm2_asm.o)
 .debug_frame   0x000123fc      0x260 C:/Program Files/Rowley Associates Limited/CrossWorks for ARM 2.3/lib/libc_v7em_t_le_eabi.a(libc_asm.o)
 .debug_frame   0x0001265c     0x1290 C:/Program Files/Rowley Associates Limited/CrossWorks for ARM 2.3/lib/libc_v7em_t_le_eabi.a(libc2.o)
 .debug_frame   0x000138ec      0x120 C:/Program Files/Rowley Associates Limited/CrossWorks for ARM 2.3/lib/libc_v7em_t_le_eabi.a(libc2_asm.o)
 .debug_frame   0x00013a0c       0x40 C:/Program Files/Rowley Associates Limited/CrossWorks for ARM 2.3/lib/libc_v7em_t_le_eabi.a(__vfprintf_double_long_long.o)
 .debug_frame   0x00013a4c       0x8c C:/Program Files/Rowley Associates Limited/CrossWorks for ARM 2.3/lib/libc_v7em_t_le_eabi.a(__vfscanf_double_long_long.o)
 .debug_frame   0x00013ad8      0x790 C:/Program Files/Rowley Associates Limited/CrossWorks for ARM 2.3/lib/libdebugio_v7em_t_le_eabi.a(libdebugio.o)
 .debug_frame   0x00014268       0xa0 C:/Program Files/Rowley Associates Limited/CrossWorks for ARM 2.3/lib/libdebugio_v7em_t_le_eabi.a(libdebugio_asm.o)
 .debug_frame   0x00014308      0x158 C:/Program Files/Rowley Associates Limited/CrossWorks for ARM 2.3/lib/libc_targetio_impl_v7em_t_le_eabi.a(libc_targetio_impl.o)
 .debug_frame   0x00014460       0xa0 C:/Program Files/Rowley Associates Limited/CrossWorks for ARM 2.3/lib/libc_user_libc_v7em_t_le_eabi.a(user_libc.o)

.debug_info     0x00000000    0x4635d
 .debug_info    0x00000000      0x733 THUMB Flash Debug 160k/main.o
 .debug_info    0x00000733     0x3b2e THUMB Flash Debug 160k/HAL.o
 .debug_info    0x00004261      0x4a8 THUMB Flash Debug 160k/HALW5500.o
 .debug_info    0x00004709      0x46b THUMB Flash Debug 160k/HALLIS.o
 .debug_info    0x00004b74     0x12c2 THUMB Flash Debug 160k/HALHSMCI.o
 .debug_info    0x00005e36      0x4f1 THUMB Flash Debug 160k/w5500.o
 .debug_info    0x00006327      0x621 THUMB Flash Debug 160k/socket.o
 .debug_info    0x00006948      0xbac THUMB Flash Debug 160k/wizchip_conf.o
 .debug_info    0x000074f4      0xa20 THUMB Flash Debug 160k/dhcp.o
 .debug_info    0x00007f14      0x632 THUMB Flash Debug 160k/dns.o
 .debug_info    0x00008546      0x3ff THUMB Flash Debug 160k/ZeroConf.o
 .debug_info    0x00008945      0x4d2 THUMB Flash Debug 160k/Memory.o
 .debug_info    0x00008e17      0xbca THUMB Flash Debug 160k/TFTPBoot.o
 .debug_info    0x000099e1      0x1e4 THUMB Flash Debug 160k/SysLog.o
 .debug_info    0x00009bc5      0x280 THUMB Flash Debug 160k/ATSHA204.o
 .debug_info    0x00009e45      0x3f4 THUMB Flash Debug 160k/LuaLibPin.o
 .debug_info    0x0000a239     0x15c9 THUMB Flash Debug 160k/LuaLibUtils.o
 .debug_info    0x0000b802      0x465 THUMB Flash Debug 160k/LuaLibSerial.o
 .debug_info    0x0000bc67     0x1203 THUMB Flash Debug 160k/LuaLibSys.o
 .debug_info    0x0000ce6a      0x339 THUMB Flash Debug 160k/LuaLibWS2812.o
 .debug_info    0x0000d1a3     0x1b93 THUMB Flash Debug 160k/LuaLibW5500.o
 .debug_info    0x0000ed36      0x465 THUMB Flash Debug 160k/LuaLibSPI.o
 .debug_info    0x0000f19b      0x364 THUMB Flash Debug 160k/LuaLibLIS.o
 .debug_info    0x0000f4ff      0x49d THUMB Flash Debug 160k/LuaLibBASE64.o
 .debug_info    0x0000f99c      0x5e5 THUMB Flash Debug 160k/LuaLibI2C.o
 .debug_info    0x0000ff81     0x275e THUMB Flash Debug 160k/LuaLibEVE.o
 .debug_info    0x000126df      0x21f THUMB Flash Debug 160k/LuaLibGYRDisplay.o
 .debug_info    0x000128fe       0xe7 THUMB Flash Debug 160k/LuaLibJSON.o
 .debug_info    0x000129e5      0x388 THUMB Flash Debug 160k/LuaLibSoftPWM.o
 .debug_info    0x00012d6d      0x42c THUMB Flash Debug 160k/LuaLibADC.o
 .debug_info    0x00013199      0x3aa THUMB Flash Debug 160k/LuaLibSoftCounter.o
 .debug_info    0x00013543      0x49e THUMB Flash Debug 160k/cn.o
 .debug_info    0x000139e1      0x22c THUMB Flash Debug 160k/Modifyer.o
 .debug_info    0x00013c0d      0x2f1 THUMB Flash Debug 160k/sha204_comm.o
 .debug_info    0x00013efe      0x79b THUMB Flash Debug 160k/sha204_comm_marshaling.o
 .debug_info    0x00014699       0xc7 THUMB Flash Debug 160k/sha204_example_main.o
 .debug_info    0x00014760      0x9a2 THUMB Flash Debug 160k/sha204_examples.o
 .debug_info    0x00015102      0xab7 THUMB Flash Debug 160k/sha204_helper.o
 .debug_info    0x00015bb9      0x201 THUMB Flash Debug 160k/sha204_swi.o
 .debug_info    0x00015dba       0xb5 THUMB Flash Debug 160k/timer_utilities.o
 .debug_info    0x00015e6f      0x16f THUMB Flash Debug 160k/uart_phys.o
 .debug_info    0x00015fde      0x768 THUMB Flash Debug 160k/WS2812.o
 .debug_info    0x00016746      0x272 THUMB Flash Debug 160k/diskio.o
 .debug_info    0x000169b8     0x258d THUMB Flash Debug 160k/ff.o
 .debug_info    0x00018f45      0x15d THUMB Flash Debug 160k/unicode.o
 .debug_info    0x000190a2      0x98d THUMB Flash Debug 160k/FatFsWrapper.o
 .debug_info    0x00019a2f      0x6cb THUMB Flash Debug 160k/EVE.o
 .debug_info    0x0001a0fa      0x5c2 THUMB Flash Debug 160k/FFS.o
 .debug_info    0x0001a6bc     0x3225 THUMB Flash Debug 160k/lapi.o
 .debug_info    0x0001d8e1     0x15b0 THUMB Flash Debug 160k/lauxlib.o
 .debug_info    0x0001ee91      0xa2f THUMB Flash Debug 160k/lbaselib.o
 .debug_info    0x0001f8c0       0xbb THUMB Flash Debug 160k/lbitlib.o
 .debug_info    0x0001f97b     0x2adb THUMB Flash Debug 160k/lcode.o
 .debug_info    0x00022456      0x4a8 THUMB Flash Debug 160k/lcorolib.o
 .debug_info    0x000228fe       0xad THUMB Flash Debug 160k/lctype.o
 .debug_info    0x000229ab      0xa8d THUMB Flash Debug 160k/ldblib.o
 .debug_info    0x00023438     0x1f6a THUMB Flash Debug 160k/ldebug.o
 .debug_info    0x000253a2     0x1f45 THUMB Flash Debug 160k/ldo.o
 .debug_info    0x000272e7     0x1335 THUMB Flash Debug 160k/ldump.o
 .debug_info    0x0002861c     0x11f4 THUMB Flash Debug 160k/lfunc.o
 .debug_info    0x00029810     0x2120 THUMB Flash Debug 160k/lgc.o
 .debug_info    0x0002b930      0x15a THUMB Flash Debug 160k/linit.o
 .debug_info    0x0002ba8a      0xfa6 THUMB Flash Debug 160k/liolib.o
 .debug_info    0x0002ca30     0x1d3b THUMB Flash Debug 160k/llex.o
 .debug_info    0x0002e76b      0x6e5 THUMB Flash Debug 160k/lmathlib.o
 .debug_info    0x0002ee50      0xbf4 THUMB Flash Debug 160k/lmem.o
 .debug_info    0x0002fa44      0x9ca THUMB Flash Debug 160k/loadlib.o
 .debug_info    0x0003040e     0x17fe THUMB Flash Debug 160k/lobject.o
 .debug_info    0x00031c0c      0x24c THUMB Flash Debug 160k/lopcodes.o
 .debug_info    0x00031e58      0x79e THUMB Flash Debug 160k/loslib.o
 .debug_info    0x000325f6     0x36f4 THUMB Flash Debug 160k/lparser.o
 .debug_info    0x00035cea     0x14ce THUMB Flash Debug 160k/lstate.o
 .debug_info    0x000371b8     0x1291 THUMB Flash Debug 160k/lstring.o
 .debug_info    0x00038449     0x1c44 THUMB Flash Debug 160k/lstrlib.o
 .debug_info    0x0003a08d     0x1b6c THUMB Flash Debug 160k/ltable.o
 .debug_info    0x0003bbf9      0x68c THUMB Flash Debug 160k/ltablib.o
 .debug_info    0x0003c285     0x1344 THUMB Flash Debug 160k/ltm.o
 .debug_info    0x0003d5c9     0x157e THUMB Flash Debug 160k/lundump.o
 .debug_info    0x0003eb47      0x559 THUMB Flash Debug 160k/lutf8lib.o
 .debug_info    0x0003f0a0     0x2b4a THUMB Flash Debug 160k/lvm.o
 .debug_info    0x00041bea      0xc95 THUMB Flash Debug 160k/lzio.o
 .debug_info    0x0004287f     0x13d9 THUMB Flash Debug 160k/lua_cjson.o
 .debug_info    0x00043c58      0x4d3 THUMB Flash Debug 160k/strbuf.o
 .debug_info    0x0004412b      0x2e8 THUMB Flash Debug 160k/fpconv.o
 .debug_info    0x00044413       0xb8 THUMB Flash Debug 160k/thumb_crt0.o
 .debug_info    0x000444cb       0xd1 THUMB Flash Debug 160k/SAM_Startup.o
 .debug_info    0x0004459c      0x459 THUMB Flash Debug 160k/system_sam.o
 .debug_info    0x000449f5      0x59e C:/Program Files/Rowley Associates Limited/CrossWorks for ARM 2.3/lib/libm_v7em_t_le_eabi.a(libm2.o)
 .debug_info    0x00044f93      0xc64 C:/Program Files/Rowley Associates Limited/CrossWorks for ARM 2.3/lib/libc_v7em_t_le_eabi.a(libc2.o)
 .debug_info    0x00045bf7       0x36 C:/Program Files/Rowley Associates Limited/CrossWorks for ARM 2.3/lib/libc_v7em_t_le_eabi.a(__vfprintf_double_long_long.o)
 .debug_info    0x00045c2d       0x6e C:/Program Files/Rowley Associates Limited/CrossWorks for ARM 2.3/lib/libc_v7em_t_le_eabi.a(__vfscanf_double_long_long.o)
 .debug_info    0x00045c9b      0x51f C:/Program Files/Rowley Associates Limited/CrossWorks for ARM 2.3/lib/libdebugio_v7em_t_le_eabi.a(libdebugio.o)
 .debug_info    0x000461ba       0xd6 C:/Program Files/Rowley Associates Limited/CrossWorks for ARM 2.3/lib/libc_targetio_impl_v7em_t_le_eabi.a(libc_targetio_impl.o)
 .debug_info    0x00046290       0xcd C:/Program Files/Rowley Associates Limited/CrossWorks for ARM 2.3/lib/libc_user_libc_v7em_t_le_eabi.a(user_libc.o)

.debug_abbrev   0x00000000     0x904f
 .debug_abbrev  0x00000000      0x1fe THUMB Flash Debug 160k/main.o
 .debug_abbrev  0x000001fe      0x3a2 THUMB Flash Debug 160k/HAL.o
 .debug_abbrev  0x000005a0      0x191 THUMB Flash Debug 160k/HALW5500.o
 .debug_abbrev  0x00000731      0x1bf THUMB Flash Debug 160k/HALLIS.o
 .debug_abbrev  0x000008f0      0x20c THUMB Flash Debug 160k/HALHSMCI.o
 .debug_abbrev  0x00000afc      0x1b1 THUMB Flash Debug 160k/w5500.o
 .debug_abbrev  0x00000cad      0x126 THUMB Flash Debug 160k/socket.o
 .debug_abbrev  0x00000dd3      0x285 THUMB Flash Debug 160k/wizchip_conf.o
 .debug_abbrev  0x00001058      0x184 THUMB Flash Debug 160k/dhcp.o
 .debug_abbrev  0x000011dc      0x179 THUMB Flash Debug 160k/dns.o
 .debug_abbrev  0x00001355      0x124 THUMB Flash Debug 160k/ZeroConf.o
 .debug_abbrev  0x00001479      0x1d6 THUMB Flash Debug 160k/Memory.o
 .debug_abbrev  0x0000164f      0x1ff THUMB Flash Debug 160k/TFTPBoot.o
 .debug_abbrev  0x0000184e       0xf5 THUMB Flash Debug 160k/SysLog.o
 .debug_abbrev  0x00001943       0xd0 THUMB Flash Debug 160k/ATSHA204.o
 .debug_abbrev  0x00001a13      0x14a THUMB Flash Debug 160k/LuaLibPin.o
 .debug_abbrev  0x00001b5d      0x2c8 THUMB Flash Debug 160k/LuaLibUtils.o
 .debug_abbrev  0x00001e25      0x151 THUMB Flash Debug 160k/LuaLibSerial.o
 .debug_abbrev  0x00001f76      0x205 THUMB Flash Debug 160k/LuaLibSys.o
 .debug_abbrev  0x0000217b      0x145 THUMB Flash Debug 160k/LuaLibWS2812.o
 .debug_abbrev  0x000022c0      0x333 THUMB Flash Debug 160k/LuaLibW5500.o
 .debug_abbrev  0x000025f3      0x151 THUMB Flash Debug 160k/LuaLibSPI.o
 .debug_abbrev  0x00002744      0x130 THUMB Flash Debug 160k/LuaLibLIS.o
 .debug_abbrev  0x00002874      0x183 THUMB Flash Debug 160k/LuaLibBASE64.o
 .debug_abbrev  0x000029f7      0x15c THUMB Flash Debug 160k/LuaLibI2C.o
 .debug_abbrev  0x00002b53      0x293 THUMB Flash Debug 160k/LuaLibEVE.o
 .debug_abbrev  0x00002de6      0x121 THUMB Flash Debug 160k/LuaLibGYRDisplay.o
 .debug_abbrev  0x00002f07       0x89 THUMB Flash Debug 160k/LuaLibJSON.o
 .debug_abbrev  0x00002f90      0x121 THUMB Flash Debug 160k/LuaLibSoftPWM.o
 .debug_abbrev  0x000030b1      0x13e THUMB Flash Debug 160k/LuaLibADC.o
 .debug_abbrev  0x000031ef      0x12a THUMB Flash Debug 160k/LuaLibSoftCounter.o
 .debug_abbrev  0x00003319      0x194 THUMB Flash Debug 160k/cn.o
 .debug_abbrev  0x000034ad       0xc7 THUMB Flash Debug 160k/Modifyer.o
 .debug_abbrev  0x00003574       0xc7 THUMB Flash Debug 160k/sha204_comm.o
 .debug_abbrev  0x0000363b       0xe5 THUMB Flash Debug 160k/sha204_comm_marshaling.o
 .debug_abbrev  0x00003720       0x78 THUMB Flash Debug 160k/sha204_example_main.o
 .debug_abbrev  0x00003798      0x189 THUMB Flash Debug 160k/sha204_examples.o
 .debug_abbrev  0x00003921      0x187 THUMB Flash Debug 160k/sha204_helper.o
 .debug_abbrev  0x00003aa8       0xf1 THUMB Flash Debug 160k/sha204_swi.o
 .debug_abbrev  0x00003b99       0x67 THUMB Flash Debug 160k/timer_utilities.o
 .debug_abbrev  0x00003c00       0xaf THUMB Flash Debug 160k/uart_phys.o
 .debug_abbrev  0x00003caf      0x131 THUMB Flash Debug 160k/WS2812.o
 .debug_abbrev  0x00003de0       0xd1 THUMB Flash Debug 160k/diskio.o
 .debug_abbrev  0x00003eb1      0x1b9 THUMB Flash Debug 160k/ff.o
 .debug_abbrev  0x0000406a       0xa5 THUMB Flash Debug 160k/unicode.o
 .debug_abbrev  0x0000410f      0x190 THUMB Flash Debug 160k/FatFsWrapper.o
 .debug_abbrev  0x0000429f      0x229 THUMB Flash Debug 160k/EVE.o
 .debug_abbrev  0x000044c8      0x174 THUMB Flash Debug 160k/FFS.o
 .debug_abbrev  0x0000463c      0x32f THUMB Flash Debug 160k/lapi.o
 .debug_abbrev  0x0000496b      0x263 THUMB Flash Debug 160k/lauxlib.o
 .debug_abbrev  0x00004bce      0x18a THUMB Flash Debug 160k/lbaselib.o
 .debug_abbrev  0x00004d58       0x71 THUMB Flash Debug 160k/lbitlib.o
 .debug_abbrev  0x00004dc9      0x314 THUMB Flash Debug 160k/lcode.o
 .debug_abbrev  0x000050dd      0x134 THUMB Flash Debug 160k/lcorolib.o
 .debug_abbrev  0x00005211       0x61 THUMB Flash Debug 160k/lctype.o
 .debug_abbrev  0x00005272      0x1dd THUMB Flash Debug 160k/ldblib.o
 .debug_abbrev  0x0000544f      0x313 THUMB Flash Debug 160k/ldebug.o
 .debug_abbrev  0x00005762      0x300 THUMB Flash Debug 160k/ldo.o
 .debug_abbrev  0x00005a62      0x1d1 THUMB Flash Debug 160k/ldump.o
 .debug_abbrev  0x00005c33      0x1ce THUMB Flash Debug 160k/lfunc.o
 .debug_abbrev  0x00005e01      0x2c3 THUMB Flash Debug 160k/lgc.o
 .debug_abbrev  0x000060c4       0xd8 THUMB Flash Debug 160k/linit.o
 .debug_abbrev  0x0000619c      0x213 THUMB Flash Debug 160k/liolib.o
 .debug_abbrev  0x000063af      0x307 THUMB Flash Debug 160k/llex.o
 .debug_abbrev  0x000066b6      0x15c THUMB Flash Debug 160k/lmathlib.o
 .debug_abbrev  0x00006812      0x1cf THUMB Flash Debug 160k/lmem.o
 .debug_abbrev  0x000069e1      0x18a THUMB Flash Debug 160k/loadlib.o
 .debug_abbrev  0x00006b6b      0x2da THUMB Flash Debug 160k/lobject.o
 .debug_abbrev  0x00006e45       0xa7 THUMB Flash Debug 160k/lopcodes.o
 .debug_abbrev  0x00006eec      0x198 THUMB Flash Debug 160k/loslib.o
 .debug_abbrev  0x00007084      0x2af THUMB Flash Debug 160k/lparser.o
 .debug_abbrev  0x00007333      0x2a5 THUMB Flash Debug 160k/lstate.o
 .debug_abbrev  0x000075d8      0x1f8 THUMB Flash Debug 160k/lstring.o
 .debug_abbrev  0x000077d0      0x26e THUMB Flash Debug 160k/lstrlib.o
 .debug_abbrev  0x00007a3e      0x2a1 THUMB Flash Debug 160k/ltable.o
 .debug_abbrev  0x00007cdf      0x1ac THUMB Flash Debug 160k/ltablib.o
 .debug_abbrev  0x00007e8b      0x220 THUMB Flash Debug 160k/ltm.o
 .debug_abbrev  0x000080ab      0x228 THUMB Flash Debug 160k/lundump.o
 .debug_abbrev  0x000082d3      0x136 THUMB Flash Debug 160k/lutf8lib.o
 .debug_abbrev  0x00008409      0x2ef THUMB Flash Debug 160k/lvm.o
 .debug_abbrev  0x000086f8      0x1dd THUMB Flash Debug 160k/lzio.o
 .debug_abbrev  0x000088d5      0x1df THUMB Flash Debug 160k/lua_cjson.o
 .debug_abbrev  0x00008ab4      0x165 THUMB Flash Debug 160k/strbuf.o
 .debug_abbrev  0x00008c19      0x111 THUMB Flash Debug 160k/fpconv.o
 .debug_abbrev  0x00008d2a       0x14 THUMB Flash Debug 160k/thumb_crt0.o
 .debug_abbrev  0x00008d3e       0x14 THUMB Flash Debug 160k/SAM_Startup.o
 .debug_abbrev  0x00008d52       0xf0 THUMB Flash Debug 160k/system_sam.o
 .debug_abbrev  0x00008e42       0x76 C:/Program Files/Rowley Associates Limited/CrossWorks for ARM 2.3/lib/libm_v7em_t_le_eabi.a(libm2.o)
 .debug_abbrev  0x00008eb8       0xa0 C:/Program Files/Rowley Associates Limited/CrossWorks for ARM 2.3/lib/libc_v7em_t_le_eabi.a(libc2.o)
 .debug_abbrev  0x00008f58       0x25 C:/Program Files/Rowley Associates Limited/CrossWorks for ARM 2.3/lib/libc_v7em_t_le_eabi.a(__vfprintf_double_long_long.o)
 .debug_abbrev  0x00008f7d       0x50 C:/Program Files/Rowley Associates Limited/CrossWorks for ARM 2.3/lib/libc_v7em_t_le_eabi.a(__vfscanf_double_long_long.o)
 .debug_abbrev  0x00008fcd       0x38 C:/Program Files/Rowley Associates Limited/CrossWorks for ARM 2.3/lib/libdebugio_v7em_t_le_eabi.a(libdebugio.o)
 .debug_abbrev  0x00009005       0x25 C:/Program Files/Rowley Associates Limited/CrossWorks for ARM 2.3/lib/libc_targetio_impl_v7em_t_le_eabi.a(libc_targetio_impl.o)
 .debug_abbrev  0x0000902a       0x25 C:/Program Files/Rowley Associates Limited/CrossWorks for ARM 2.3/lib/libc_user_libc_v7em_t_le_eabi.a(user_libc.o)

.debug_loc      0x00000000    0x17f78
 .debug_loc     0x00000000      0x1b6 THUMB Flash Debug 160k/main.o
 .debug_loc     0x000001b6     0x16c8 THUMB Flash Debug 160k/HAL.o
 .debug_loc     0x0000187e      0x1ec THUMB Flash Debug 160k/HALW5500.o
 .debug_loc     0x00001a6a      0x218 THUMB Flash Debug 160k/HALLIS.o
 .debug_loc     0x00001c82      0x4e4 THUMB Flash Debug 160k/HALHSMCI.o
 .debug_loc     0x00002166      0x1f8 THUMB Flash Debug 160k/w5500.o
 .debug_loc     0x0000235e      0x2a0 THUMB Flash Debug 160k/socket.o
 .debug_loc     0x000025fe      0x6f0 THUMB Flash Debug 160k/wizchip_conf.o
 .debug_loc     0x00002cee      0x444 THUMB Flash Debug 160k/dhcp.o
 .debug_loc     0x00003132      0x254 THUMB Flash Debug 160k/dns.o
 .debug_loc     0x00003386       0xe2 THUMB Flash Debug 160k/ZeroConf.o
 .debug_loc     0x00003468      0x270 THUMB Flash Debug 160k/Memory.o
 .debug_loc     0x000036d8      0x2a6 THUMB Flash Debug 160k/TFTPBoot.o
 .debug_loc     0x0000397e       0xa8 THUMB Flash Debug 160k/SysLog.o
 .debug_loc     0x00003a26      0x110 THUMB Flash Debug 160k/ATSHA204.o
 .debug_loc     0x00003b36      0x188 THUMB Flash Debug 160k/LuaLibPin.o
 .debug_loc     0x00003cbe      0x2bb THUMB Flash Debug 160k/LuaLibUtils.o
 .debug_loc     0x00003f79      0x127 THUMB Flash Debug 160k/LuaLibSerial.o
 .debug_loc     0x000040a0      0x310 THUMB Flash Debug 160k/LuaLibSys.o
 .debug_loc     0x000043b0       0xa8 THUMB Flash Debug 160k/LuaLibWS2812.o
 .debug_loc     0x00004458      0x796 THUMB Flash Debug 160k/LuaLibW5500.o
 .debug_loc     0x00004bee      0x127 THUMB Flash Debug 160k/LuaLibSPI.o
 .debug_loc     0x00004d15      0x118 THUMB Flash Debug 160k/LuaLibLIS.o
 .debug_loc     0x00004e2d      0x171 THUMB Flash Debug 160k/LuaLibBASE64.o
 .debug_loc     0x00004f9e      0x155 THUMB Flash Debug 160k/LuaLibI2C.o
 .debug_loc     0x000050f3     0x15dc THUMB Flash Debug 160k/LuaLibEVE.o
 .debug_loc     0x000066cf       0x70 THUMB Flash Debug 160k/LuaLibGYRDisplay.o
 .debug_loc     0x0000673f       0x38 THUMB Flash Debug 160k/LuaLibJSON.o
 .debug_loc     0x00006777      0x118 THUMB Flash Debug 160k/LuaLibSoftPWM.o
 .debug_loc     0x0000688f      0x11a THUMB Flash Debug 160k/LuaLibADC.o
 .debug_loc     0x000069a9      0x118 THUMB Flash Debug 160k/LuaLibSoftCounter.o
 .debug_loc     0x00006ac1      0x20e THUMB Flash Debug 160k/cn.o
 .debug_loc     0x00006ccf       0xa8 THUMB Flash Debug 160k/Modifyer.o
 .debug_loc     0x00006d77      0x118 THUMB Flash Debug 160k/sha204_comm.o
 .debug_loc     0x00006e8f      0x349 THUMB Flash Debug 160k/sha204_comm_marshaling.o
 .debug_loc     0x000071d8       0x3a THUMB Flash Debug 160k/sha204_example_main.o
 .debug_loc     0x00007212      0x313 THUMB Flash Debug 160k/sha204_examples.o
 .debug_loc     0x00007525      0x2de THUMB Flash Debug 160k/sha204_helper.o
 .debug_loc     0x00007803      0x1bc THUMB Flash Debug 160k/sha204_swi.o
 .debug_loc     0x000079bf       0x70 THUMB Flash Debug 160k/timer_utilities.o
 .debug_loc     0x00007a2f      0x144 THUMB Flash Debug 160k/uart_phys.o
 .debug_loc     0x00007b73       0xa8 THUMB Flash Debug 160k/WS2812.o
 .debug_loc     0x00007c1b      0x118 THUMB Flash Debug 160k/diskio.o
 .debug_loc     0x00007d33      0xdbe THUMB Flash Debug 160k/ff.o
 .debug_loc     0x00008af1       0x70 THUMB Flash Debug 160k/unicode.o
 .debug_loc     0x00008b61      0x508 THUMB Flash Debug 160k/FatFsWrapper.o
 .debug_loc     0x00009069      0x3f8 THUMB Flash Debug 160k/EVE.o
 .debug_loc     0x00009461      0x14a THUMB Flash Debug 160k/FFS.o
 .debug_loc     0x000095ab     0x123b THUMB Flash Debug 160k/lapi.o
 .debug_loc     0x0000a7e6      0xc9d THUMB Flash Debug 160k/lauxlib.o
 .debug_loc     0x0000b483      0x6c8 THUMB Flash Debug 160k/lbaselib.o
 .debug_loc     0x0000bb4b       0x38 THUMB Flash Debug 160k/lbitlib.o
 .debug_loc     0x0000bb83      0xd96 THUMB Flash Debug 160k/lcode.o
 .debug_loc     0x0000c919      0x26a THUMB Flash Debug 160k/lcorolib.o
 .debug_loc     0x0000cb83      0x5f0 THUMB Flash Debug 160k/ldblib.o
 .debug_loc     0x0000d173      0x74c THUMB Flash Debug 160k/ldebug.o
 .debug_loc     0x0000d8bf      0x626 THUMB Flash Debug 160k/ldo.o
 .debug_loc     0x0000dee5      0x310 THUMB Flash Debug 160k/ldump.o
 .debug_loc     0x0000e1f5      0x1c0 THUMB Flash Debug 160k/lfunc.o
 .debug_loc     0x0000e3b5      0xaba THUMB Flash Debug 160k/lgc.o
 .debug_loc     0x0000ee6f       0x38 THUMB Flash Debug 160k/linit.o
 .debug_loc     0x0000eea7      0x9c2 THUMB Flash Debug 160k/liolib.o
 .debug_loc     0x0000f869      0x5b2 THUMB Flash Debug 160k/llex.o
 .debug_loc     0x0000fe1b      0x578 THUMB Flash Debug 160k/lmathlib.o
 .debug_loc     0x00010393       0xa8 THUMB Flash Debug 160k/lmem.o
 .debug_loc     0x0001043b      0x5ce THUMB Flash Debug 160k/loadlib.o
 .debug_loc     0x00010a09      0x3ca THUMB Flash Debug 160k/lobject.o
 .debug_loc     0x00010dd3      0x3c9 THUMB Flash Debug 160k/loslib.o
 .debug_loc     0x0001119c     0x12e9 THUMB Flash Debug 160k/lparser.o
 .debug_loc     0x00012485      0x34a THUMB Flash Debug 160k/lstate.o
 .debug_loc     0x000127cf      0x1f8 THUMB Flash Debug 160k/lstring.o
 .debug_loc     0x000129c7      0xc52 THUMB Flash Debug 160k/lstrlib.o
 .debug_loc     0x00013619      0x5b8 THUMB Flash Debug 160k/ltable.o
 .debug_loc     0x00013bd1      0x2e9 THUMB Flash Debug 160k/ltablib.o
 .debug_loc     0x00013eba      0x188 THUMB Flash Debug 160k/ltm.o
 .debug_loc     0x00014042      0x3b8 THUMB Flash Debug 160k/lundump.o
 .debug_loc     0x000143fa      0x236 THUMB Flash Debug 160k/lutf8lib.o
 .debug_loc     0x00014630      0x46b THUMB Flash Debug 160k/lvm.o
 .debug_loc     0x00014a9b       0xe0 THUMB Flash Debug 160k/lzio.o
 .debug_loc     0x00014b7b      0xbd8 THUMB Flash Debug 160k/lua_cjson.o
 .debug_loc     0x00015753      0x360 THUMB Flash Debug 160k/strbuf.o
 .debug_loc     0x00015ab3      0x180 THUMB Flash Debug 160k/fpconv.o
 .debug_loc     0x00015c33       0x90 THUMB Flash Debug 160k/system_sam.o
 .debug_loc     0x00015cc3      0x839 C:/Program Files/Rowley Associates Limited/CrossWorks for ARM 2.3/lib/libm_v7em_t_le_eabi.a(libm2.o)
 .debug_loc     0x000164fc     0x106e C:/Program Files/Rowley Associates Limited/CrossWorks for ARM 2.3/lib/libc_v7em_t_le_eabi.a(libc2.o)
 .debug_loc     0x0001756a       0x2d C:/Program Files/Rowley Associates Limited/CrossWorks for ARM 2.3/lib/libc_v7em_t_le_eabi.a(__vfprintf_double_long_long.o)
 .debug_loc     0x00017597       0x79 C:/Program Files/Rowley Associates Limited/CrossWorks for ARM 2.3/lib/libc_v7em_t_le_eabi.a(__vfscanf_double_long_long.o)
 .debug_loc     0x00017610      0x7f4 C:/Program Files/Rowley Associates Limited/CrossWorks for ARM 2.3/lib/libdebugio_v7em_t_le_eabi.a(libdebugio.o)
 .debug_loc     0x00017e04      0x174 C:/Program Files/Rowley Associates Limited/CrossWorks for ARM 2.3/lib/libc_targetio_impl_v7em_t_le_eabi.a(libc_targetio_impl.o)

.debug_aranges  0x00000000     0x4458
 .debug_aranges
                0x00000000       0x58 THUMB Flash Debug 160k/main.o
 .debug_aranges
                0x00000058      0x380 THUMB Flash Debug 160k/HAL.o
 .debug_aranges
                0x000003d8       0x60 THUMB Flash Debug 160k/HALW5500.o
 .debug_aranges
                0x00000438       0x68 THUMB Flash Debug 160k/HALLIS.o
 .debug_aranges
                0x000004a0       0xd0 THUMB Flash Debug 160k/HALHSMCI.o
 .debug_aranges
                0x00000570       0x60 THUMB Flash Debug 160k/w5500.o
 .debug_aranges
                0x000005d0       0x78 THUMB Flash Debug 160k/socket.o
 .debug_aranges
                0x00000648      0x120 THUMB Flash Debug 160k/wizchip_conf.o
 .debug_aranges
                0x00000768       0xc0 THUMB Flash Debug 160k/dhcp.o
 .debug_aranges
                0x00000828       0x70 THUMB Flash Debug 160k/dns.o
 .debug_aranges
                0x00000898       0x38 THUMB Flash Debug 160k/ZeroConf.o
 .debug_aranges
                0x000008d0       0x78 THUMB Flash Debug 160k/Memory.o
 .debug_aranges
                0x00000948       0x78 THUMB Flash Debug 160k/TFTPBoot.o
 .debug_aranges
                0x000009c0       0x30 THUMB Flash Debug 160k/SysLog.o
 .debug_aranges
                0x000009f0       0x40 THUMB Flash Debug 160k/ATSHA204.o
 .debug_aranges
                0x00000a30       0x50 THUMB Flash Debug 160k/LuaLibPin.o
 .debug_aranges
                0x00000a80       0x78 THUMB Flash Debug 160k/LuaLibUtils.o
 .debug_aranges
                0x00000af8       0x40 THUMB Flash Debug 160k/LuaLibSerial.o
 .debug_aranges
                0x00000b38       0x88 THUMB Flash Debug 160k/LuaLibSys.o
 .debug_aranges
                0x00000bc0       0x30 THUMB Flash Debug 160k/LuaLibWS2812.o
 .debug_aranges
                0x00000bf0      0x130 THUMB Flash Debug 160k/LuaLibW5500.o
 .debug_aranges
                0x00000d20       0x40 THUMB Flash Debug 160k/LuaLibSPI.o
 .debug_aranges
                0x00000d60       0x40 THUMB Flash Debug 160k/LuaLibLIS.o
 .debug_aranges
                0x00000da0       0x48 THUMB Flash Debug 160k/LuaLibBASE64.o
 .debug_aranges
                0x00000de8       0x48 THUMB Flash Debug 160k/LuaLibI2C.o
 .debug_aranges
                0x00000e30      0x338 THUMB Flash Debug 160k/LuaLibEVE.o
 .debug_aranges
                0x00001168       0x28 THUMB Flash Debug 160k/LuaLibGYRDisplay.o
 .debug_aranges
                0x00001190       0x20 THUMB Flash Debug 160k/LuaLibJSON.o
 .debug_aranges
                0x000011b0       0x40 THUMB Flash Debug 160k/LuaLibSoftPWM.o
 .debug_aranges
                0x000011f0       0x40 THUMB Flash Debug 160k/LuaLibADC.o
 .debug_aranges
                0x00001230       0x40 THUMB Flash Debug 160k/LuaLibSoftCounter.o
 .debug_aranges
                0x00001270       0x68 THUMB Flash Debug 160k/cn.o
 .debug_aranges
                0x000012d8       0x30 THUMB Flash Debug 160k/Modifyer.o
 .debug_aranges
                0x00001308       0x40 THUMB Flash Debug 160k/sha204_comm.o
 .debug_aranges
                0x00001348       0x90 THUMB Flash Debug 160k/sha204_comm_marshaling.o
 .debug_aranges
                0x000013d8       0x20 THUMB Flash Debug 160k/sha204_example_main.o
 .debug_aranges
                0x000013f8       0x88 THUMB Flash Debug 160k/sha204_examples.o
 .debug_aranges
                0x00001480       0x80 THUMB Flash Debug 160k/sha204_helper.o
 .debug_aranges
                0x00001500       0x60 THUMB Flash Debug 160k/sha204_swi.o
 .debug_aranges
                0x00001560       0x28 THUMB Flash Debug 160k/timer_utilities.o
 .debug_aranges
                0x00001588       0x48 THUMB Flash Debug 160k/uart_phys.o
 .debug_aranges
                0x000015d0       0x30 THUMB Flash Debug 160k/WS2812.o
 .debug_aranges
                0x00001600       0x40 THUMB Flash Debug 160k/diskio.o
 .debug_aranges
                0x00001640      0x208 THUMB Flash Debug 160k/ff.o
 .debug_aranges
                0x00001848       0x28 THUMB Flash Debug 160k/unicode.o
 .debug_aranges
                0x00001870       0xd0 THUMB Flash Debug 160k/FatFsWrapper.o
 .debug_aranges
                0x00001940       0xb0 THUMB Flash Debug 160k/EVE.o
 .debug_aranges
                0x000019f0       0x48 THUMB Flash Debug 160k/FFS.o
 .debug_aranges
                0x00001a38      0x2b0 THUMB Flash Debug 160k/lapi.o
 .debug_aranges
                0x00001ce8      0x1e0 THUMB Flash Debug 160k/lauxlib.o
 .debug_aranges
                0x00001ec8      0x110 THUMB Flash Debug 160k/lbaselib.o
 .debug_aranges
                0x00001fd8       0x20 THUMB Flash Debug 160k/lbitlib.o
 .debug_aranges
                0x00001ff8      0x208 THUMB Flash Debug 160k/lcode.o
 .debug_aranges
                0x00002200       0x70 THUMB Flash Debug 160k/lcorolib.o
 .debug_aranges
                0x00002270       0xf0 THUMB Flash Debug 160k/ldblib.o
 .debug_aranges
                0x00002360      0x120 THUMB Flash Debug 160k/ldebug.o
 .debug_aranges
                0x00002480       0xf8 THUMB Flash Debug 160k/ldo.o
 .debug_aranges
                0x00002578       0x88 THUMB Flash Debug 160k/ldump.o
 .debug_aranges
                0x00002600       0x58 THUMB Flash Debug 160k/lfunc.o
 .debug_aranges
                0x00002658      0x1a0 THUMB Flash Debug 160k/lgc.o
 .debug_aranges
                0x000027f8       0x20 THUMB Flash Debug 160k/linit.o
 .debug_aranges
                0x00002818      0x178 THUMB Flash Debug 160k/liolib.o
 .debug_aranges
                0x00002990       0xe8 THUMB Flash Debug 160k/llex.o
 .debug_aranges
                0x00002a78       0xe0 THUMB Flash Debug 160k/lmathlib.o
 .debug_aranges
                0x00002b58       0x30 THUMB Flash Debug 160k/lmem.o
 .debug_aranges
                0x00002b88       0xe8 THUMB Flash Debug 160k/loadlib.o
 .debug_aranges
                0x00002c70       0xa0 THUMB Flash Debug 160k/lobject.o
 .debug_aranges
                0x00002d10       0xa0 THUMB Flash Debug 160k/loslib.o
 .debug_aranges
                0x00002db0      0x2c8 THUMB Flash Debug 160k/lparser.o
 .debug_aranges
                0x00003078       0x90 THUMB Flash Debug 160k/lstate.o
 .debug_aranges
                0x00003108       0x60 THUMB Flash Debug 160k/lstring.o
 .debug_aranges
                0x00003168      0x1c8 THUMB Flash Debug 160k/lstrlib.o
 .debug_aranges
                0x00003330       0xe8 THUMB Flash Debug 160k/ltable.o
 .debug_aranges
                0x00003418       0x80 THUMB Flash Debug 160k/ltablib.o
 .debug_aranges
                0x00003498       0x50 THUMB Flash Debug 160k/ltm.o
 .debug_aranges
                0x000034e8       0xa0 THUMB Flash Debug 160k/lundump.o
 .debug_aranges
                0x00003588       0x68 THUMB Flash Debug 160k/lutf8lib.o
 .debug_aranges
                0x000035f0       0xb8 THUMB Flash Debug 160k/lvm.o
 .debug_aranges
                0x000036a8       0x38 THUMB Flash Debug 160k/lzio.o
 .debug_aranges
                0x000036e0      0x1c8 THUMB Flash Debug 160k/lua_cjson.o
 .debug_aranges
                0x000038a8       0x90 THUMB Flash Debug 160k/strbuf.o
 .debug_aranges
                0x00003938       0x50 THUMB Flash Debug 160k/fpconv.o
 .debug_aranges
                0x00003988       0x20 THUMB Flash Debug 160k/thumb_crt0.o
 .debug_aranges
                0x000039a8       0x20 THUMB Flash Debug 160k/SAM_Startup.o
 .debug_aranges
                0x000039c8       0x30 THUMB Flash Debug 160k/system_sam.o
 .debug_aranges
                0x000039f8      0x230 C:/Program Files/Rowley Associates Limited/CrossWorks for ARM 2.3/lib/libm_v7em_t_le_eabi.a(libm2.o)
 .debug_aranges
                0x00003c28      0x508 C:/Program Files/Rowley Associates Limited/CrossWorks for ARM 2.3/lib/libc_v7em_t_le_eabi.a(libc2.o)
 .debug_aranges
                0x00004130       0x20 C:/Program Files/Rowley Associates Limited/CrossWorks for ARM 2.3/lib/libc_v7em_t_le_eabi.a(__vfprintf_double_long_long.o)
 .debug_aranges
                0x00004150       0x30 C:/Program Files/Rowley Associates Limited/CrossWorks for ARM 2.3/lib/libc_v7em_t_le_eabi.a(__vfscanf_double_long_long.o)
 .debug_aranges
                0x00004180      0x218 C:/Program Files/Rowley Associates Limited/CrossWorks for ARM 2.3/lib/libdebugio_v7em_t_le_eabi.a(libdebugio.o)
 .debug_aranges
                0x00004398       0x60 C:/Program Files/Rowley Associates Limited/CrossWorks for ARM 2.3/lib/libc_targetio_impl_v7em_t_le_eabi.a(libc_targetio_impl.o)
 .debug_aranges
                0x000043f8       0x60 C:/Program Files/Rowley Associates Limited/CrossWorks for ARM 2.3/lib/libc_user_libc_v7em_t_le_eabi.a(user_libc.o)

.debug_ranges   0x00000000     0x4170
 .debug_ranges  0x00000000       0x48 THUMB Flash Debug 160k/main.o
 .debug_ranges  0x00000048      0x370 THUMB Flash Debug 160k/HAL.o
 .debug_ranges  0x000003b8       0x50 THUMB Flash Debug 160k/HALW5500.o
 .debug_ranges  0x00000408       0x58 THUMB Flash Debug 160k/HALLIS.o
 .debug_ranges  0x00000460       0xc0 THUMB Flash Debug 160k/HALHSMCI.o
 .debug_ranges  0x00000520       0x50 THUMB Flash Debug 160k/w5500.o
 .debug_ranges  0x00000570       0x68 THUMB Flash Debug 160k/socket.o
 .debug_ranges  0x000005d8      0x110 THUMB Flash Debug 160k/wizchip_conf.o
 .debug_ranges  0x000006e8       0xb0 THUMB Flash Debug 160k/dhcp.o
 .debug_ranges  0x00000798       0x60 THUMB Flash Debug 160k/dns.o
 .debug_ranges  0x000007f8       0x28 THUMB Flash Debug 160k/ZeroConf.o
 .debug_ranges  0x00000820       0x68 THUMB Flash Debug 160k/Memory.o
 .debug_ranges  0x00000888       0x68 THUMB Flash Debug 160k/TFTPBoot.o
 .debug_ranges  0x000008f0       0x20 THUMB Flash Debug 160k/SysLog.o
 .debug_ranges  0x00000910       0x30 THUMB Flash Debug 160k/ATSHA204.o
 .debug_ranges  0x00000940       0x40 THUMB Flash Debug 160k/LuaLibPin.o
 .debug_ranges  0x00000980       0x98 THUMB Flash Debug 160k/LuaLibUtils.o
 .debug_ranges  0x00000a18       0x30 THUMB Flash Debug 160k/LuaLibSerial.o
 .debug_ranges  0x00000a48       0x78 THUMB Flash Debug 160k/LuaLibSys.o
 .debug_ranges  0x00000ac0       0x80 THUMB Flash Debug 160k/LuaLibWS2812.o
 .debug_ranges  0x00000b40      0x120 THUMB Flash Debug 160k/LuaLibW5500.o
 .debug_ranges  0x00000c60       0x30 THUMB Flash Debug 160k/LuaLibSPI.o
 .debug_ranges  0x00000c90       0x30 THUMB Flash Debug 160k/LuaLibLIS.o
 .debug_ranges  0x00000cc0       0x38 THUMB Flash Debug 160k/LuaLibBASE64.o
 .debug_ranges  0x00000cf8       0x38 THUMB Flash Debug 160k/LuaLibI2C.o
 .debug_ranges  0x00000d30      0x328 THUMB Flash Debug 160k/LuaLibEVE.o
 .debug_ranges  0x00001058       0x18 THUMB Flash Debug 160k/LuaLibGYRDisplay.o
 .debug_ranges  0x00001070       0x10 THUMB Flash Debug 160k/LuaLibJSON.o
 .debug_ranges  0x00001080       0x30 THUMB Flash Debug 160k/LuaLibSoftPWM.o
 .debug_ranges  0x000010b0       0x30 THUMB Flash Debug 160k/LuaLibADC.o
 .debug_ranges  0x000010e0       0x30 THUMB Flash Debug 160k/LuaLibSoftCounter.o
 .debug_ranges  0x00001110       0x58 THUMB Flash Debug 160k/cn.o
 .debug_ranges  0x00001168       0x20 THUMB Flash Debug 160k/Modifyer.o
 .debug_ranges  0x00001188       0x30 THUMB Flash Debug 160k/sha204_comm.o
 .debug_ranges  0x000011b8       0x80 THUMB Flash Debug 160k/sha204_comm_marshaling.o
 .debug_ranges  0x00001238       0x10 THUMB Flash Debug 160k/sha204_example_main.o
 .debug_ranges  0x00001248       0x78 THUMB Flash Debug 160k/sha204_examples.o
 .debug_ranges  0x000012c0       0x70 THUMB Flash Debug 160k/sha204_helper.o
 .debug_ranges  0x00001330       0x50 THUMB Flash Debug 160k/sha204_swi.o
 .debug_ranges  0x00001380       0x18 THUMB Flash Debug 160k/timer_utilities.o
 .debug_ranges  0x00001398       0x38 THUMB Flash Debug 160k/uart_phys.o
 .debug_ranges  0x000013d0       0x20 THUMB Flash Debug 160k/WS2812.o
 .debug_ranges  0x000013f0       0x30 THUMB Flash Debug 160k/diskio.o
 .debug_ranges  0x00001420      0x1f8 THUMB Flash Debug 160k/ff.o
 .debug_ranges  0x00001618       0x18 THUMB Flash Debug 160k/unicode.o
 .debug_ranges  0x00001630       0xc0 THUMB Flash Debug 160k/FatFsWrapper.o
 .debug_ranges  0x000016f0       0xa0 THUMB Flash Debug 160k/EVE.o
 .debug_ranges  0x00001790       0x38 THUMB Flash Debug 160k/FFS.o
 .debug_ranges  0x000017c8      0x2b8 THUMB Flash Debug 160k/lapi.o
 .debug_ranges  0x00001a80      0x1d0 THUMB Flash Debug 160k/lauxlib.o
 .debug_ranges  0x00001c50      0x100 THUMB Flash Debug 160k/lbaselib.o
 .debug_ranges  0x00001d50       0x10 THUMB Flash Debug 160k/lbitlib.o
 .debug_ranges  0x00001d60      0x1f8 THUMB Flash Debug 160k/lcode.o
 .debug_ranges  0x00001f58       0x60 THUMB Flash Debug 160k/lcorolib.o
 .debug_ranges  0x00001fb8       0xf8 THUMB Flash Debug 160k/ldblib.o
 .debug_ranges  0x000020b0      0x188 THUMB Flash Debug 160k/ldebug.o
 .debug_ranges  0x00002238       0xe8 THUMB Flash Debug 160k/ldo.o
 .debug_ranges  0x00002320       0x78 THUMB Flash Debug 160k/ldump.o
 .debug_ranges  0x00002398       0x48 THUMB Flash Debug 160k/lfunc.o
 .debug_ranges  0x000023e0      0x1a8 THUMB Flash Debug 160k/lgc.o
 .debug_ranges  0x00002588       0x10 THUMB Flash Debug 160k/linit.o
 .debug_ranges  0x00002598      0x168 THUMB Flash Debug 160k/liolib.o
 .debug_ranges  0x00002700       0xd8 THUMB Flash Debug 160k/llex.o
 .debug_ranges  0x000027d8       0xe8 THUMB Flash Debug 160k/lmathlib.o
 .debug_ranges  0x000028c0       0x20 THUMB Flash Debug 160k/lmem.o
 .debug_ranges  0x000028e0       0xd8 THUMB Flash Debug 160k/loadlib.o
 .debug_ranges  0x000029b8       0xa8 THUMB Flash Debug 160k/lobject.o
 .debug_ranges  0x00002a60       0x90 THUMB Flash Debug 160k/loslib.o
 .debug_ranges  0x00002af0      0x2b8 THUMB Flash Debug 160k/lparser.o
 .debug_ranges  0x00002da8       0x98 THUMB Flash Debug 160k/lstate.o
 .debug_ranges  0x00002e40       0x50 THUMB Flash Debug 160k/lstring.o
 .debug_ranges  0x00002e90      0x1e8 THUMB Flash Debug 160k/lstrlib.o
 .debug_ranges  0x00003078      0x138 THUMB Flash Debug 160k/ltable.o
 .debug_ranges  0x000031b0       0x88 THUMB Flash Debug 160k/ltablib.o
 .debug_ranges  0x00003238       0x40 THUMB Flash Debug 160k/ltm.o
 .debug_ranges  0x00003278       0x90 THUMB Flash Debug 160k/lundump.o
 .debug_ranges  0x00003308       0x58 THUMB Flash Debug 160k/lutf8lib.o
 .debug_ranges  0x00003360      0x160 THUMB Flash Debug 160k/lvm.o
 .debug_ranges  0x000034c0       0x28 THUMB Flash Debug 160k/lzio.o
 .debug_ranges  0x000034e8      0x1b8 THUMB Flash Debug 160k/lua_cjson.o
 .debug_ranges  0x000036a0       0x80 THUMB Flash Debug 160k/strbuf.o
 .debug_ranges  0x00003720       0x40 THUMB Flash Debug 160k/fpconv.o
 .debug_ranges  0x00003760       0x20 THUMB Flash Debug 160k/system_sam.o
 .debug_ranges  0x00003780      0x220 C:/Program Files/Rowley Associates Limited/CrossWorks for ARM 2.3/lib/libm_v7em_t_le_eabi.a(libm2.o)
 .debug_ranges  0x000039a0      0x4f8 C:/Program Files/Rowley Associates Limited/CrossWorks for ARM 2.3/lib/libc_v7em_t_le_eabi.a(libc2.o)
 .debug_ranges  0x00003e98       0x10 C:/Program Files/Rowley Associates Limited/CrossWorks for ARM 2.3/lib/libc_v7em_t_le_eabi.a(__vfprintf_double_long_long.o)
 .debug_ranges  0x00003ea8       0x20 C:/Program Files/Rowley Associates Limited/CrossWorks for ARM 2.3/lib/libc_v7em_t_le_eabi.a(__vfscanf_double_long_long.o)
 .debug_ranges  0x00003ec8      0x208 C:/Program Files/Rowley Associates Limited/CrossWorks for ARM 2.3/lib/libdebugio_v7em_t_le_eabi.a(libdebugio.o)
 .debug_ranges  0x000040d0       0x50 C:/Program Files/Rowley Associates Limited/CrossWorks for ARM 2.3/lib/libc_targetio_impl_v7em_t_le_eabi.a(libc_targetio_impl.o)
 .debug_ranges  0x00004120       0x50 C:/Program Files/Rowley Associates Limited/CrossWorks for ARM 2.3/lib/libc_user_libc_v7em_t_le_eabi.a(user_libc.o)

.debug_line     0x00000000    0x17f20
 .debug_line    0x00000000      0x3a8 THUMB Flash Debug 160k/main.o
 .debug_line    0x000003a8     0x1244 THUMB Flash Debug 160k/HAL.o
 .debug_line    0x000015ec      0x28f THUMB Flash Debug 160k/HALW5500.o
 .debug_line    0x0000187b      0x25e THUMB Flash Debug 160k/HALLIS.o
 .debug_line    0x00001ad9      0x541 THUMB Flash Debug 160k/HALHSMCI.o
 .debug_line    0x0000201a      0x259 THUMB Flash Debug 160k/w5500.o
 .debug_line    0x00002273      0x547 THUMB Flash Debug 160k/socket.o
 .debug_line    0x000027ba      0x4b6 THUMB Flash Debug 160k/wizchip_conf.o
 .debug_line    0x00002c70      0x500 THUMB Flash Debug 160k/dhcp.o
 .debug_line    0x00003170      0x308 THUMB Flash Debug 160k/dns.o
 .debug_line    0x00003478      0x213 THUMB Flash Debug 160k/ZeroConf.o
 .debug_line    0x0000368b      0x2da THUMB Flash Debug 160k/Memory.o
 .debug_line    0x00003965      0x3b0 THUMB Flash Debug 160k/TFTPBoot.o
 .debug_line    0x00003d15      0x17b THUMB Flash Debug 160k/SysLog.o
 .debug_line    0x00003e90      0x1a8 THUMB Flash Debug 160k/ATSHA204.o
 .debug_line    0x00004038      0x24f THUMB Flash Debug 160k/LuaLibPin.o
 .debug_line    0x00004287      0x6aa THUMB Flash Debug 160k/LuaLibUtils.o
 .debug_line    0x00004931      0x262 THUMB Flash Debug 160k/LuaLibSerial.o
 .debug_line    0x00004b93      0x369 THUMB Flash Debug 160k/LuaLibSys.o
 .debug_line    0x00004efc      0x27a THUMB Flash Debug 160k/LuaLibWS2812.o
 .debug_line    0x00005176      0x6f0 THUMB Flash Debug 160k/LuaLibW5500.o
 .debug_line    0x00005866      0x209 THUMB Flash Debug 160k/LuaLibSPI.o
 .debug_line    0x00005a6f      0x22a THUMB Flash Debug 160k/LuaLibLIS.o
 .debug_line    0x00005c99      0x2e0 THUMB Flash Debug 160k/LuaLibBASE64.o
 .debug_line    0x00005f79      0x2e5 THUMB Flash Debug 160k/LuaLibI2C.o
 .debug_line    0x0000625e      0xc26 THUMB Flash Debug 160k/LuaLibEVE.o
 .debug_line    0x00006e84      0x19a THUMB Flash Debug 160k/LuaLibGYRDisplay.o
 .debug_line    0x0000701e      0x1b7 THUMB Flash Debug 160k/LuaLibJSON.o
 .debug_line    0x000071d5      0x236 THUMB Flash Debug 160k/LuaLibSoftPWM.o
 .debug_line    0x0000740b      0x24c THUMB Flash Debug 160k/LuaLibADC.o
 .debug_line    0x00007657      0x22f THUMB Flash Debug 160k/LuaLibSoftCounter.o
 .debug_line    0x00007886      0x2ad THUMB Flash Debug 160k/cn.o
 .debug_line    0x00007b33      0x1a4 THUMB Flash Debug 160k/Modifyer.o
 .debug_line    0x00007cd7      0x1ec THUMB Flash Debug 160k/sha204_comm.o
 .debug_line    0x00007ec3      0x3b7 THUMB Flash Debug 160k/sha204_comm_marshaling.o
 .debug_line    0x0000827a       0xe6 THUMB Flash Debug 160k/sha204_example_main.o
 .debug_line    0x00008360      0x3c2 THUMB Flash Debug 160k/sha204_examples.o
 .debug_line    0x00008722      0x594 THUMB Flash Debug 160k/sha204_helper.o
 .debug_line    0x00008cb6      0x19b THUMB Flash Debug 160k/sha204_swi.o
 .debug_line    0x00008e51       0xf3 THUMB Flash Debug 160k/timer_utilities.o
 .debug_line    0x00008f44      0x138 THUMB Flash Debug 160k/uart_phys.o
 .debug_line    0x0000907c      0x2ba THUMB Flash Debug 160k/WS2812.o
 .debug_line    0x00009336      0x1f0 THUMB Flash Debug 160k/diskio.o
 .debug_line    0x00009526     0x1679 THUMB Flash Debug 160k/ff.o
 .debug_line    0x0000ab9f      0x13f THUMB Flash Debug 160k/unicode.o
 .debug_line    0x0000acde      0x462 THUMB Flash Debug 160k/FatFsWrapper.o
 .debug_line    0x0000b140      0x3b6 THUMB Flash Debug 160k/EVE.o
 .debug_line    0x0000b4f6      0x25a THUMB Flash Debug 160k/FFS.o
 .debug_line    0x0000b750      0xb99 THUMB Flash Debug 160k/lapi.o
 .debug_line    0x0000c2e9      0x7a2 THUMB Flash Debug 160k/lauxlib.o
 .debug_line    0x0000ca8b      0x4e3 THUMB Flash Debug 160k/lbaselib.o
 .debug_line    0x0000cf6e       0x8d THUMB Flash Debug 160k/lbitlib.o
 .debug_line    0x0000cffb      0x8f5 THUMB Flash Debug 160k/lcode.o
 .debug_line    0x0000d8f0      0x1a0 THUMB Flash Debug 160k/lcorolib.o
 .debug_line    0x0000da90       0x7e THUMB Flash Debug 160k/lctype.o
 .debug_line    0x0000db0e      0x3ec THUMB Flash Debug 160k/ldblib.o
 .debug_line    0x0000defa      0x6b3 THUMB Flash Debug 160k/ldebug.o
 .debug_line    0x0000e5ad      0x628 THUMB Flash Debug 160k/ldo.o
 .debug_line    0x0000ebd5      0x2ef THUMB Flash Debug 160k/ldump.o
 .debug_line    0x0000eec4      0x239 THUMB Flash Debug 160k/lfunc.o
 .debug_line    0x0000f0fd      0x9dd THUMB Flash Debug 160k/lgc.o
 .debug_line    0x0000fada       0xad THUMB Flash Debug 160k/linit.o
 .debug_line    0x0000fb87      0x652 THUMB Flash Debug 160k/liolib.o
 .debug_line    0x000101d9      0x896 THUMB Flash Debug 160k/llex.o
 .debug_line    0x00010a6f      0x394 THUMB Flash Debug 160k/lmathlib.o
 .debug_line    0x00010e03      0x17c THUMB Flash Debug 160k/lmem.o
 .debug_line    0x00010f7f      0x424 THUMB Flash Debug 160k/loadlib.o
 .debug_line    0x000113a3      0x499 THUMB Flash Debug 160k/lobject.o
 .debug_line    0x0001183c       0x8e THUMB Flash Debug 160k/lopcodes.o
 .debug_line    0x000118ca      0x2f4 THUMB Flash Debug 160k/loslib.o
 .debug_line    0x00011bbe      0xcf4 THUMB Flash Debug 160k/lparser.o
 .debug_line    0x000128b2      0x2d9 THUMB Flash Debug 160k/lstate.o
 .debug_line    0x00012b8b      0x26b THUMB Flash Debug 160k/lstring.o
 .debug_line    0x00012df6      0xc26 THUMB Flash Debug 160k/lstrlib.o
 .debug_line    0x00013a1c      0x54e THUMB Flash Debug 160k/ltable.o
 .debug_line    0x00013f6a      0x3a2 THUMB Flash Debug 160k/ltablib.o
 .debug_line    0x0001430c      0x211 THUMB Flash Debug 160k/ltm.o
 .debug_line    0x0001451d      0x3e4 THUMB Flash Debug 160k/lundump.o
 .debug_line    0x00014901      0x2fc THUMB Flash Debug 160k/lutf8lib.o
 .debug_line    0x00014bfd      0xf8d THUMB Flash Debug 160k/lvm.o
 .debug_line    0x00015b8a      0x17f THUMB Flash Debug 160k/lzio.o
 .debug_line    0x00015d09      0x841 THUMB Flash Debug 160k/lua_cjson.o
 .debug_line    0x0001654a      0x297 THUMB Flash Debug 160k/strbuf.o
 .debug_line    0x000167e1      0x1bd THUMB Flash Debug 160k/fpconv.o
 .debug_line    0x0001699e       0xea THUMB Flash Debug 160k/thumb_crt0.o
 .debug_line    0x00016a88       0xd4 THUMB Flash Debug 160k/SAM_Startup.o
 .debug_line    0x00016b5c      0x36a THUMB Flash Debug 160k/system_sam.o
 .debug_line    0x00016ec6      0x32c C:/Program Files/Rowley Associates Limited/CrossWorks for ARM 2.3/lib/libm_v7em_t_le_eabi.a(libm2.o)
 .debug_line    0x000171f2      0x5b3 C:/Program Files/Rowley Associates Limited/CrossWorks for ARM 2.3/lib/libc_v7em_t_le_eabi.a(libc2.o)
 .debug_line    0x000177a5       0x75 C:/Program Files/Rowley Associates Limited/CrossWorks for ARM 2.3/lib/libc_v7em_t_le_eabi.a(__vfprintf_double_long_long.o)
 .debug_line    0x0001781a       0x74 C:/Program Files/Rowley Associates Limited/CrossWorks for ARM 2.3/lib/libc_v7em_t_le_eabi.a(__vfscanf_double_long_long.o)
 .debug_line    0x0001788e      0x550 C:/Program Files/Rowley Associates Limited/CrossWorks for ARM 2.3/lib/libdebugio_v7em_t_le_eabi.a(libdebugio.o)
 .debug_line    0x00017dde       0xce C:/Program Files/Rowley Associates Limited/CrossWorks for ARM 2.3/lib/libc_targetio_impl_v7em_t_le_eabi.a(libc_targetio_impl.o)
 .debug_line    0x00017eac       0x74 C:/Program Files/Rowley Associates Limited/CrossWorks for ARM 2.3/lib/libc_user_libc_v7em_t_le_eabi.a(user_libc.o)

.debug_str      0x00000000     0xb8ab
 .debug_str     0x00000000      0x3fb THUMB Flash Debug 160k/main.o
                                0x4a7 (size before relaxing)
 .debug_str     0x000003fb     0x140e THUMB Flash Debug 160k/HAL.o
                               0x16a6 (size before relaxing)
 .debug_str     0x00001809      0x2d6 THUMB Flash Debug 160k/HALW5500.o
                                0x468 (size before relaxing)
 .debug_str     0x00001adf      0x138 THUMB Flash Debug 160k/HALLIS.o
                                0x2bf (size before relaxing)
 .debug_str     0x00001c17      0x384 THUMB Flash Debug 160k/HALHSMCI.o
                                0x8b0 (size before relaxing)
 .debug_str     0x00001f9b      0x128 THUMB Flash Debug 160k/w5500.o
                                0x249 (size before relaxing)
 .debug_str     0x000020c3      0x281 THUMB Flash Debug 160k/socket.o
                                0x3eb (size before relaxing)
 .debug_str     0x00002344      0x47e THUMB Flash Debug 160k/wizchip_conf.o
                                0x804 (size before relaxing)
 .debug_str     0x000027c2      0x720 THUMB Flash Debug 160k/dhcp.o
                                0x88a (size before relaxing)
 .debug_str     0x00002ee2      0x174 THUMB Flash Debug 160k/dns.o
                                0x2e0 (size before relaxing)
 .debug_str     0x00003056      0x114 THUMB Flash Debug 160k/ZeroConf.o
                                0x291 (size before relaxing)
 .debug_str     0x0000316a      0x11b THUMB Flash Debug 160k/Memory.o
                                0x2b4 (size before relaxing)
 .debug_str     0x00003285      0x1f1 THUMB Flash Debug 160k/TFTPBoot.o
                                0x59c (size before relaxing)
 .debug_str     0x00003476       0x82 THUMB Flash Debug 160k/SysLog.o
                                0x1e7 (size before relaxing)
 .debug_str     0x000034f8       0xca THUMB Flash Debug 160k/ATSHA204.o
                                0x231 (size before relaxing)
 .debug_str     0x000035c2       0xf1 THUMB Flash Debug 160k/LuaLibPin.o
                                0x26b (size before relaxing)
 .debug_str     0x000036b3      0x7c6 THUMB Flash Debug 160k/LuaLibUtils.o
                                0xaa5 (size before relaxing)
 .debug_str     0x00003e79       0xbd THUMB Flash Debug 160k/LuaLibSerial.o
                                0x276 (size before relaxing)
 .debug_str     0x00003f36      0x1d4 THUMB Flash Debug 160k/LuaLibSys.o
                                0x9c4 (size before relaxing)
 .debug_str     0x0000410a       0x83 THUMB Flash Debug 160k/LuaLibWS2812.o
                                0x219 (size before relaxing)
 .debug_str     0x0000418d      0x332 THUMB Flash Debug 160k/LuaLibW5500.o
                                0xa0d (size before relaxing)
 .debug_str     0x000044bf       0x61 THUMB Flash Debug 160k/LuaLibSPI.o
                                0x270 (size before relaxing)
 .debug_str     0x00004520       0x97 THUMB Flash Debug 160k/LuaLibLIS.o
                                0x233 (size before relaxing)
 .debug_str     0x000045b7       0xca THUMB Flash Debug 160k/LuaLibBASE64.o
                                0x267 (size before relaxing)
 .debug_str     0x00004681       0x8e THUMB Flash Debug 160k/LuaLibI2C.o
                                0x2d6 (size before relaxing)
 .debug_str     0x0000470f      0x6db THUMB Flash Debug 160k/LuaLibEVE.o
                                0xb28 (size before relaxing)
 .debug_str     0x00004dea       0x88 THUMB Flash Debug 160k/LuaLibGYRDisplay.o
                                0x1f2 (size before relaxing)
 .debug_str     0x00004e72       0x63 THUMB Flash Debug 160k/LuaLibJSON.o
                                0x195 (size before relaxing)
 .debug_str     0x00004ed5       0x69 THUMB Flash Debug 160k/LuaLibSoftPWM.o
                                0x275 (size before relaxing)
 .debug_str     0x00004f3e       0x61 THUMB Flash Debug 160k/LuaLibADC.o
                                0x257 (size before relaxing)
 .debug_str     0x00004f9f       0x71 THUMB Flash Debug 160k/LuaLibSoftCounter.o
                                0x250 (size before relaxing)
 .debug_str     0x00005010       0xcf THUMB Flash Debug 160k/cn.o
                                0x2ec (size before relaxing)
 .debug_str     0x000050df       0x83 THUMB Flash Debug 160k/Modifyer.o
                                0x1e0 (size before relaxing)
 .debug_str     0x00005162      0x199 THUMB Flash Debug 160k/sha204_comm.o
                                0x2e2 (size before relaxing)
 .debug_str     0x000052fb      0x215 THUMB Flash Debug 160k/sha204_comm_marshaling.o
                                0x396 (size before relaxing)
 .debug_str     0x00005510       0x66 THUMB Flash Debug 160k/sha204_example_main.o
                                0x18a (size before relaxing)
 .debug_str     0x00005576      0x3a8 THUMB Flash Debug 160k/sha204_examples.o
                                0x580 (size before relaxing)
 .debug_str     0x0000591e      0x2be THUMB Flash Debug 160k/sha204_helper.o
                                0x548 (size before relaxing)
 .debug_str     0x00005bdc       0xf8 THUMB Flash Debug 160k/sha204_swi.o
                                0x22c (size before relaxing)
 .debug_str     0x00005cd4       0x6b THUMB Flash Debug 160k/timer_utilities.o
                                0x139 (size before relaxing)
 .debug_str     0x00005d3f       0xb8 THUMB Flash Debug 160k/uart_phys.o
                                0x193 (size before relaxing)
 .debug_str     0x00005df7       0x9d THUMB Flash Debug 160k/WS2812.o
                                0x4da (size before relaxing)
 .debug_str     0x00005e94       0xdd THUMB Flash Debug 160k/diskio.o
                                0x21b (size before relaxing)
 .debug_str     0x00005f71      0x3b3 THUMB Flash Debug 160k/ff.o
                                0x734 (size before relaxing)
 .debug_str     0x00006324       0x87 THUMB Flash Debug 160k/unicode.o
                                0x133 (size before relaxing)
 .debug_str     0x000063ab       0xb9 THUMB Flash Debug 160k/FatFsWrapper.o
                                0x4c8 (size before relaxing)
 .debug_str     0x00006464      0x1d8 THUMB Flash Debug 160k/EVE.o
                                0x368 (size before relaxing)
 .debug_str     0x0000663c       0x93 THUMB Flash Debug 160k/FFS.o
                                0x412 (size before relaxing)
 .debug_str     0x000066cf      0x580 THUMB Flash Debug 160k/lapi.o
                                0xc65 (size before relaxing)
 .debug_str     0x00006c4f      0x3c1 THUMB Flash Debug 160k/lauxlib.o
                                0x64f (size before relaxing)
 .debug_str     0x00007010      0x208 THUMB Flash Debug 160k/lbaselib.o
                                0x3cb (size before relaxing)
 .debug_str     0x00007218       0x60 THUMB Flash Debug 160k/lbitlib.o
                                0x17d (size before relaxing)
 .debug_str     0x00007278      0x598 THUMB Flash Debug 160k/lcode.o
                                0xdcc (size before relaxing)
 .debug_str     0x00007810       0xfb THUMB Flash Debug 160k/lcorolib.o
                                0x2c6 (size before relaxing)
 .debug_str     0x0000790b       0x5d THUMB Flash Debug 160k/lctype.o
                                0x178 (size before relaxing)
 .debug_str     0x00007968      0x1bb THUMB Flash Debug 160k/ldblib.o
                                0x3d9 (size before relaxing)
 .debug_str     0x00007b23      0x1f2 THUMB Flash Debug 160k/ldebug.o
                                0xaf6 (size before relaxing)
 .debug_str     0x00007d15      0x267 THUMB Flash Debug 160k/ldo.o
                                0xb63 (size before relaxing)
 .debug_str     0x00007f7c       0xfa THUMB Flash Debug 160k/ldump.o
                                0x706 (size before relaxing)
 .debug_str     0x00008076       0xd8 THUMB Flash Debug 160k/lfunc.o
                                0x6e9 (size before relaxing)
 .debug_str     0x0000814e      0x373 THUMB Flash Debug 160k/lgc.o
                                0xa98 (size before relaxing)
 .debug_str     0x000084c1       0x69 THUMB Flash Debug 160k/linit.o
                                0x1a7 (size before relaxing)
 .debug_str     0x0000852a      0x229 THUMB Flash Debug 160k/liolib.o
                                0x3f2 (size before relaxing)
 .debug_str     0x00008753      0x2d7 THUMB Flash Debug 160k/llex.o
                                0xa9e (size before relaxing)
 .debug_str     0x00008a2a      0x175 THUMB Flash Debug 160k/lmathlib.o
                                0x2e8 (size before relaxing)
 .debug_str     0x00008b9f       0x95 THUMB Flash Debug 160k/lmem.o
                                0x5a1 (size before relaxing)
 .debug_str     0x00008c34      0x1d4 THUMB Flash Debug 160k/loadlib.o
                                0x377 (size before relaxing)
 .debug_str     0x00008e08      0x137 THUMB Flash Debug 160k/lobject.o
                                0x831 (size before relaxing)
 .debug_str     0x00008f3f       0x9d THUMB Flash Debug 160k/lopcodes.o
                                0x375 (size before relaxing)
 .debug_str     0x00008fdc      0x158 THUMB Flash Debug 160k/loslib.o
                                0x31c (size before relaxing)
 .debug_str     0x00009134      0x465 THUMB Flash Debug 160k/lparser.o
                               0x110b (size before relaxing)
 .debug_str     0x00009599      0x113 THUMB Flash Debug 160k/lstate.o
                                0x747 (size before relaxing)
 .debug_str     0x000096ac       0xca THUMB Flash Debug 160k/lstring.o
                                0x6db (size before relaxing)
 .debug_str     0x00009776      0x39c THUMB Flash Debug 160k/lstrlib.o
                                0x5c6 (size before relaxing)
 .debug_str     0x00009b12      0x1cd THUMB Flash Debug 160k/ltable.o
                                0x8c2 (size before relaxing)
 .debug_str     0x00009cdf       0xb6 THUMB Flash Debug 160k/ltablib.o
                                0x250 (size before relaxing)
 .debug_str     0x00009d95       0xd1 THUMB Flash Debug 160k/ltm.o
                                0x7b3 (size before relaxing)
 .debug_str     0x00009e66      0x10f THUMB Flash Debug 160k/lundump.o
                                0x745 (size before relaxing)
 .debug_str     0x00009f75       0xbf THUMB Flash Debug 160k/lutf8lib.o
                                0x24f (size before relaxing)
 .debug_str     0x0000a034      0x1a4 THUMB Flash Debug 160k/lvm.o
                                0xa78 (size before relaxing)
 .debug_str     0x0000a1d8       0x7c THUMB Flash Debug 160k/lzio.o
                                0x57f (size before relaxing)
 .debug_str     0x0000a254      0x6a6 THUMB Flash Debug 160k/lua_cjson.o
                                0x913 (size before relaxing)
 .debug_str     0x0000a8fa      0x127 THUMB Flash Debug 160k/strbuf.o
                                0x27c (size before relaxing)
 .debug_str     0x0000aa21      0x105 THUMB Flash Debug 160k/fpconv.o
                                0x1db (size before relaxing)
 .debug_str     0x0000ab26       0xe1 THUMB Flash Debug 160k/system_sam.o
                                0x33d (size before relaxing)
 .debug_str     0x0000ac07      0x16a C:/Program Files/Rowley Associates Limited/CrossWorks for ARM 2.3/lib/libm_v7em_t_le_eabi.a(libm2.o)
                                0x212 (size before relaxing)
 .debug_str     0x0000ad71      0x556 C:/Program Files/Rowley Associates Limited/CrossWorks for ARM 2.3/lib/libc_v7em_t_le_eabi.a(libc2.o)
                                0x655 (size before relaxing)
 .debug_str     0x0000b2c7       0x71 C:/Program Files/Rowley Associates Limited/CrossWorks for ARM 2.3/lib/libc_v7em_t_le_eabi.a(__vfprintf_double_long_long.o)
                                 0xba (size before relaxing)
 .debug_str     0x0000b338       0x91 C:/Program Files/Rowley Associates Limited/CrossWorks for ARM 2.3/lib/libc_v7em_t_le_eabi.a(__vfscanf_double_long_long.o)
                                 0xda (size before relaxing)
 .debug_str     0x0000b3c9      0x3b3 C:/Program Files/Rowley Associates Limited/CrossWorks for ARM 2.3/lib/libdebugio_v7em_t_le_eabi.a(libdebugio.o)
                                0x3fc (size before relaxing)
 .debug_str     0x0000b77c       0x5d C:/Program Files/Rowley Associates Limited/CrossWorks for ARM 2.3/lib/libc_targetio_impl_v7em_t_le_eabi.a(libc_targetio_impl.o)
                                 0xe1 (size before relaxing)
 .debug_str     0x0000b7d9       0xd2 C:/Program Files/Rowley Associates Limited/CrossWorks for ARM 2.3/lib/libc_user_libc_v7em_t_le_eabi.a(user_libc.o)
                                0x11b (size before relaxing)

.comment        0x00000000       0x4e
 .comment       0x00000000       0x4e THUMB Flash Debug 160k/main.o
                                 0x4f (size before relaxing)
 .comment       0x00000000       0x4f THUMB Flash Debug 160k/HAL.o
 .comment       0x00000000       0x4f THUMB Flash Debug 160k/HALW5500.o
 .comment       0x00000000       0x4f THUMB Flash Debug 160k/HALLIS.o
 .comment       0x00000000       0x4f THUMB Flash Debug 160k/HALHSMCI.o
 .comment       0x00000000       0x4f THUMB Flash Debug 160k/w5500.o
 .comment       0x00000000       0x4f THUMB Flash Debug 160k/socket.o
 .comment       0x00000000       0x4f THUMB Flash Debug 160k/wizchip_conf.o
 .comment       0x00000000       0x4f THUMB Flash Debug 160k/dhcp.o
 .comment       0x00000000       0x4f THUMB Flash Debug 160k/dns.o
 .comment       0x00000000       0x4f THUMB Flash Debug 160k/ZeroConf.o
 .comment       0x00000000       0x4f THUMB Flash Debug 160k/Memory.o
 .comment       0x00000000       0x4f THUMB Flash Debug 160k/TFTPBoot.o
 .comment       0x00000000       0x4f THUMB Flash Debug 160k/SysLog.o
 .comment       0x00000000       0x4f THUMB Flash Debug 160k/ATSHA204.o
 .comment       0x00000000       0x4f THUMB Flash Debug 160k/LuaLibPin.o
 .comment       0x00000000       0x4f THUMB Flash Debug 160k/LuaLibUtils.o
 .comment       0x00000000       0x4f THUMB Flash Debug 160k/LuaLibSerial.o
 .comment       0x00000000       0x4f THUMB Flash Debug 160k/LuaLibSys.o
 .comment       0x00000000       0x4f THUMB Flash Debug 160k/LuaLibWS2812.o
 .comment       0x00000000       0x4f THUMB Flash Debug 160k/LuaLibW5500.o
 .comment       0x00000000       0x4f THUMB Flash Debug 160k/LuaLibSPI.o
 .comment       0x00000000       0x4f THUMB Flash Debug 160k/LuaLibLIS.o
 .comment       0x00000000       0x4f THUMB Flash Debug 160k/LuaLibBASE64.o
 .comment       0x00000000       0x4f THUMB Flash Debug 160k/LuaLibI2C.o
 .comment       0x00000000       0x4f THUMB Flash Debug 160k/LuaLibEVE.o
 .comment       0x00000000       0x4f THUMB Flash Debug 160k/LuaLibGYRDisplay.o
 .comment       0x00000000       0x4f THUMB Flash Debug 160k/LuaLibJSON.o
 .comment       0x00000000       0x4f THUMB Flash Debug 160k/LuaLibSoftPWM.o
 .comment       0x00000000       0x4f THUMB Flash Debug 160k/LuaLibADC.o
 .comment       0x00000000       0x4f THUMB Flash Debug 160k/LuaLibSoftCounter.o
 .comment       0x00000000       0x4f THUMB Flash Debug 160k/cn.o
 .comment       0x00000000       0x4f THUMB Flash Debug 160k/Modifyer.o
 .comment       0x00000000       0x4f THUMB Flash Debug 160k/sha204_comm.o
 .comment       0x00000000       0x4f THUMB Flash Debug 160k/sha204_comm_marshaling.o
 .comment       0x00000000       0x4f THUMB Flash Debug 160k/sha204_example_main.o
 .comment       0x00000000       0x4f THUMB Flash Debug 160k/sha204_examples.o
 .comment       0x00000000       0x4f THUMB Flash Debug 160k/sha204_helper.o
 .comment       0x00000000       0x4f THUMB Flash Debug 160k/sha204_swi.o
 .comment       0x00000000       0x4f THUMB Flash Debug 160k/timer_utilities.o
 .comment       0x00000000       0x4f THUMB Flash Debug 160k/uart_phys.o
 .comment       0x00000000       0x4f THUMB Flash Debug 160k/WS2812.o
 .comment       0x00000000       0x4f THUMB Flash Debug 160k/diskio.o
 .comment       0x00000000       0x4f THUMB Flash Debug 160k/ff.o
 .comment       0x00000000       0x4f THUMB Flash Debug 160k/unicode.o
 .comment       0x00000000       0x4f THUMB Flash Debug 160k/FatFsWrapper.o
 .comment       0x00000000       0x4f THUMB Flash Debug 160k/EVE.o
 .comment       0x00000000       0x4f THUMB Flash Debug 160k/FFS.o
 .comment       0x00000000       0x4f THUMB Flash Debug 160k/lapi.o
 .comment       0x00000000       0x4f THUMB Flash Debug 160k/lauxlib.o
 .comment       0x00000000       0x4f THUMB Flash Debug 160k/lbaselib.o
 .comment       0x00000000       0x4f THUMB Flash Debug 160k/lbitlib.o
 .comment       0x00000000       0x4f THUMB Flash Debug 160k/lcode.o
 .comment       0x00000000       0x4f THUMB Flash Debug 160k/lcorolib.o
 .comment       0x00000000       0x4f THUMB Flash Debug 160k/lctype.o
 .comment       0x00000000       0x4f THUMB Flash Debug 160k/ldblib.o
 .comment       0x00000000       0x4f THUMB Flash Debug 160k/ldebug.o
 .comment       0x00000000       0x4f THUMB Flash Debug 160k/ldo.o
 .comment       0x00000000       0x4f THUMB Flash Debug 160k/ldump.o
 .comment       0x00000000       0x4f THUMB Flash Debug 160k/lfunc.o
 .comment       0x00000000       0x4f THUMB Flash Debug 160k/lgc.o
 .comment       0x00000000       0x4f THUMB Flash Debug 160k/linit.o
 .comment       0x00000000       0x4f THUMB Flash Debug 160k/liolib.o
 .comment       0x00000000       0x4f THUMB Flash Debug 160k/llex.o
 .comment       0x00000000       0x4f THUMB Flash Debug 160k/lmathlib.o
 .comment       0x00000000       0x4f THUMB Flash Debug 160k/lmem.o
 .comment       0x00000000       0x4f THUMB Flash Debug 160k/loadlib.o
 .comment       0x00000000       0x4f THUMB Flash Debug 160k/lobject.o
 .comment       0x00000000       0x4f THUMB Flash Debug 160k/lopcodes.o
 .comment       0x00000000       0x4f THUMB Flash Debug 160k/loslib.o
 .comment       0x00000000       0x4f THUMB Flash Debug 160k/lparser.o
 .comment       0x00000000       0x4f THUMB Flash Debug 160k/lstate.o
 .comment       0x00000000       0x4f THUMB Flash Debug 160k/lstring.o
 .comment       0x00000000       0x4f THUMB Flash Debug 160k/lstrlib.o
 .comment       0x00000000       0x4f THUMB Flash Debug 160k/ltable.o
 .comment       0x00000000       0x4f THUMB Flash Debug 160k/ltablib.o
 .comment       0x00000000       0x4f THUMB Flash Debug 160k/ltm.o
 .comment       0x00000000       0x4f THUMB Flash Debug 160k/lundump.o
 .comment       0x00000000       0x4f THUMB Flash Debug 160k/lutf8lib.o
 .comment       0x00000000       0x4f THUMB Flash Debug 160k/lvm.o
 .comment       0x00000000       0x4f THUMB Flash Debug 160k/lzio.o
 .comment       0x00000000       0x4f THUMB Flash Debug 160k/lua_cjson.o
 .comment       0x00000000       0x4f THUMB Flash Debug 160k/strbuf.o
 .comment       0x00000000       0x4f THUMB Flash Debug 160k/fpconv.o
 .comment       0x00000000       0x4f THUMB Flash Debug 160k/system_sam.o
 .comment       0x00000000       0x4f C:/Program Files/Rowley Associates Limited/CrossWorks for ARM 2.3/lib/libm_v7em_t_le_eabi.a(libm2.o)
 .comment       0x00000000       0x4f C:/Program Files/Rowley Associates Limited/CrossWorks for ARM 2.3/lib/libc_v7em_t_le_eabi.a(libc2.o)
 .comment       0x00000000       0x4f C:/Program Files/Rowley Associates Limited/CrossWorks for ARM 2.3/lib/libc_v7em_t_le_eabi.a(__vfprintf_double_long_long.o)
 .comment       0x00000000       0x4f C:/Program Files/Rowley Associates Limited/CrossWorks for ARM 2.3/lib/libc_v7em_t_le_eabi.a(__vfscanf_double_long_long.o)
 .comment       0x00000000       0x4f C:/Program Files/Rowley Associates Limited/CrossWorks for ARM 2.3/lib/libdebugio_v7em_t_le_eabi.a(libdebugio.o)
 .comment       0x00000000       0x4f C:/Program Files/Rowley Associates Limited/CrossWorks for ARM 2.3/lib/libc_targetio_impl_v7em_t_le_eabi.a(libc_targetio_impl.o)
 .comment       0x00000000       0x4f C:/Program Files/Rowley Associates Limited/CrossWorks for ARM 2.3/lib/libc_user_libc_v7em_t_le_eabi.a(user_libc.o)

.ARM.attributes
                0x00000000       0x37
 .ARM.attributes
                0x00000000       0x33 THUMB Flash Debug 160k/main.o
 .ARM.attributes
                0x00000033       0x33 THUMB Flash Debug 160k/HAL.o
 .ARM.attributes
                0x00000066       0x33 THUMB Flash Debug 160k/HALW5500.o
 .ARM.attributes
                0x00000099       0x33 THUMB Flash Debug 160k/HALLIS.o
 .ARM.attributes
                0x000000cc       0x33 THUMB Flash Debug 160k/HALHSMCI.o
 .ARM.attributes
                0x000000ff       0x33 THUMB Flash Debug 160k/w5500.o
 .ARM.attributes
                0x00000132       0x33 THUMB Flash Debug 160k/socket.o
 .ARM.attributes
                0x00000165       0x33 THUMB Flash Debug 160k/wizchip_conf.o
 .ARM.attributes
                0x00000198       0x33 THUMB Flash Debug 160k/dhcp.o
 .ARM.attributes
                0x000001cb       0x33 THUMB Flash Debug 160k/dns.o
 .ARM.attributes
                0x000001fe       0x33 THUMB Flash Debug 160k/ZeroConf.o
 .ARM.attributes
                0x00000231       0x33 THUMB Flash Debug 160k/Memory.o
 .ARM.attributes
                0x00000264       0x33 THUMB Flash Debug 160k/TFTPBoot.o
 .ARM.attributes
                0x00000297       0x33 THUMB Flash Debug 160k/SysLog.o
 .ARM.attributes
                0x000002ca       0x33 THUMB Flash Debug 160k/ATSHA204.o
 .ARM.attributes
                0x000002fd       0x33 THUMB Flash Debug 160k/LuaLibPin.o
 .ARM.attributes
                0x00000330       0x33 THUMB Flash Debug 160k/LuaLibUtils.o
 .ARM.attributes
                0x00000363       0x33 THUMB Flash Debug 160k/LuaLibSerial.o
 .ARM.attributes
                0x00000396       0x33 THUMB Flash Debug 160k/LuaLibSys.o
 .ARM.attributes
                0x000003c9       0x33 THUMB Flash Debug 160k/LuaLibWS2812.o
 .ARM.attributes
                0x000003fc       0x33 THUMB Flash Debug 160k/LuaLibW5500.o
 .ARM.attributes
                0x0000042f       0x33 THUMB Flash Debug 160k/LuaLibSPI.o
 .ARM.attributes
                0x00000462       0x33 THUMB Flash Debug 160k/LuaLibLIS.o
 .ARM.attributes
                0x00000495       0x33 THUMB Flash Debug 160k/LuaLibBASE64.o
 .ARM.attributes
                0x000004c8       0x33 THUMB Flash Debug 160k/LuaLibI2C.o
 .ARM.attributes
                0x000004fb       0x33 THUMB Flash Debug 160k/LuaLibEVE.o
 .ARM.attributes
                0x0000052e       0x33 THUMB Flash Debug 160k/LuaLibGYRDisplay.o
 .ARM.attributes
                0x00000561       0x33 THUMB Flash Debug 160k/LuaLibJSON.o
 .ARM.attributes
                0x00000594       0x33 THUMB Flash Debug 160k/LuaLibSoftPWM.o
 .ARM.attributes
                0x000005c7       0x33 THUMB Flash Debug 160k/LuaLibADC.o
 .ARM.attributes
                0x000005fa       0x33 THUMB Flash Debug 160k/LuaLibSoftCounter.o
 .ARM.attributes
                0x0000062d       0x33 THUMB Flash Debug 160k/cn.o
 .ARM.attributes
                0x00000660       0x33 THUMB Flash Debug 160k/Modifyer.o
 .ARM.attributes
                0x00000693       0x33 THUMB Flash Debug 160k/sha204_comm.o
 .ARM.attributes
                0x000006c6       0x33 THUMB Flash Debug 160k/sha204_comm_marshaling.o
 .ARM.attributes
                0x000006f9       0x33 THUMB Flash Debug 160k/sha204_example_main.o
 .ARM.attributes
                0x0000072c       0x33 THUMB Flash Debug 160k/sha204_examples.o
 .ARM.attributes
                0x0000075f       0x33 THUMB Flash Debug 160k/sha204_helper.o
 .ARM.attributes
                0x00000792       0x33 THUMB Flash Debug 160k/sha204_swi.o
 .ARM.attributes
                0x000007c5       0x33 THUMB Flash Debug 160k/timer_utilities.o
 .ARM.attributes
                0x000007f8       0x33 THUMB Flash Debug 160k/uart_phys.o
 .ARM.attributes
                0x0000082b       0x33 THUMB Flash Debug 160k/WS2812.o
 .ARM.attributes
                0x0000085e       0x33 THUMB Flash Debug 160k/diskio.o
 .ARM.attributes
                0x00000891       0x33 THUMB Flash Debug 160k/ff.o
 .ARM.attributes
                0x000008c4       0x33 THUMB Flash Debug 160k/unicode.o
 .ARM.attributes
                0x000008f7       0x33 THUMB Flash Debug 160k/FatFsWrapper.o
 .ARM.attributes
                0x0000092a       0x33 THUMB Flash Debug 160k/EVE.o
 .ARM.attributes
                0x0000095d       0x33 THUMB Flash Debug 160k/FFS.o
 .ARM.attributes
                0x00000990       0x33 THUMB Flash Debug 160k/lapi.o
 .ARM.attributes
                0x000009c3       0x33 THUMB Flash Debug 160k/lauxlib.o
 .ARM.attributes
                0x000009f6       0x33 THUMB Flash Debug 160k/lbaselib.o
 .ARM.attributes
                0x00000a29       0x33 THUMB Flash Debug 160k/lbitlib.o
 .ARM.attributes
                0x00000a5c       0x33 THUMB Flash Debug 160k/lcode.o
 .ARM.attributes
                0x00000a8f       0x33 THUMB Flash Debug 160k/lcorolib.o
 .ARM.attributes
                0x00000ac2       0x33 THUMB Flash Debug 160k/lctype.o
 .ARM.attributes
                0x00000af5       0x33 THUMB Flash Debug 160k/ldblib.o
 .ARM.attributes
                0x00000b28       0x33 THUMB Flash Debug 160k/ldebug.o
 .ARM.attributes
                0x00000b5b       0x33 THUMB Flash Debug 160k/ldo.o
 .ARM.attributes
                0x00000b8e       0x33 THUMB Flash Debug 160k/ldump.o
 .ARM.attributes
                0x00000bc1       0x33 THUMB Flash Debug 160k/lfunc.o
 .ARM.attributes
                0x00000bf4       0x33 THUMB Flash Debug 160k/lgc.o
 .ARM.attributes
                0x00000c27       0x33 THUMB Flash Debug 160k/linit.o
 .ARM.attributes
                0x00000c5a       0x33 THUMB Flash Debug 160k/liolib.o
 .ARM.attributes
                0x00000c8d       0x33 THUMB Flash Debug 160k/llex.o
 .ARM.attributes
                0x00000cc0       0x33 THUMB Flash Debug 160k/lmathlib.o
 .ARM.attributes
                0x00000cf3       0x33 THUMB Flash Debug 160k/lmem.o
 .ARM.attributes
                0x00000d26       0x33 THUMB Flash Debug 160k/loadlib.o
 .ARM.attributes
                0x00000d59       0x33 THUMB Flash Debug 160k/lobject.o
 .ARM.attributes
                0x00000d8c       0x33 THUMB Flash Debug 160k/lopcodes.o
 .ARM.attributes
                0x00000dbf       0x33 THUMB Flash Debug 160k/loslib.o
 .ARM.attributes
                0x00000df2       0x33 THUMB Flash Debug 160k/lparser.o
 .ARM.attributes
                0x00000e25       0x33 THUMB Flash Debug 160k/lstate.o
 .ARM.attributes
                0x00000e58       0x33 THUMB Flash Debug 160k/lstring.o
 .ARM.attributes
                0x00000e8b       0x33 THUMB Flash Debug 160k/lstrlib.o
 .ARM.attributes
                0x00000ebe       0x33 THUMB Flash Debug 160k/ltable.o
 .ARM.attributes
                0x00000ef1       0x33 THUMB Flash Debug 160k/ltablib.o
 .ARM.attributes
                0x00000f24       0x33 THUMB Flash Debug 160k/ltm.o
 .ARM.attributes
                0x00000f57       0x33 THUMB Flash Debug 160k/lundump.o
 .ARM.attributes
                0x00000f8a       0x33 THUMB Flash Debug 160k/lutf8lib.o
 .ARM.attributes
                0x00000fbd       0x33 THUMB Flash Debug 160k/lvm.o
 .ARM.attributes
                0x00000ff0       0x33 THUMB Flash Debug 160k/lzio.o
 .ARM.attributes
                0x00001023       0x33 THUMB Flash Debug 160k/lua_cjson.o
 .ARM.attributes
                0x00001056       0x33 THUMB Flash Debug 160k/strbuf.o
 .ARM.attributes
                0x00001089       0x33 THUMB Flash Debug 160k/fpconv.o
 .ARM.attributes
                0x000010bc       0x27 THUMB Flash Debug 160k/thumb_crt0.o
 .ARM.attributes
                0x000010e3       0x27 THUMB Flash Debug 160k/SAM_Startup.o
 .ARM.attributes
                0x0000110a       0x33 THUMB Flash Debug 160k/system_sam.o
 .ARM.attributes
                0x0000113d       0x1e C:/Program Files/Rowley Associates Limited/CrossWorks for ARM 2.3/lib/libm_v7em_t_le_eabi.a(libm_asm.o)
 .ARM.attributes
                0x0000115b       0x2e C:/Program Files/Rowley Associates Limited/CrossWorks for ARM 2.3/lib/libm_v7em_t_le_eabi.a(libm2.o)
 .ARM.attributes
                0x00001189       0x1e C:/Program Files/Rowley Associates Limited/CrossWorks for ARM 2.3/lib/libm_v7em_t_le_eabi.a(libm2_asm.o)
 .ARM.attributes
                0x000011a7       0x1e C:/Program Files/Rowley Associates Limited/CrossWorks for ARM 2.3/lib/libc_v7em_t_le_eabi.a(libc_asm.o)
 .ARM.attributes
                0x000011c5       0x2e C:/Program Files/Rowley Associates Limited/CrossWorks for ARM 2.3/lib/libc_v7em_t_le_eabi.a(libc2.o)
 .ARM.attributes
                0x000011f3       0x1e C:/Program Files/Rowley Associates Limited/CrossWorks for ARM 2.3/lib/libc_v7em_t_le_eabi.a(libc2_asm.o)
 .ARM.attributes
                0x00001211       0x2e C:/Program Files/Rowley Associates Limited/CrossWorks for ARM 2.3/lib/libc_v7em_t_le_eabi.a(__vfprintf_double_long_long.o)
 .ARM.attributes
                0x0000123f       0x2e C:/Program Files/Rowley Associates Limited/CrossWorks for ARM 2.3/lib/libc_v7em_t_le_eabi.a(__vfscanf_double_long_long.o)
 .ARM.attributes
                0x0000126d       0x2e C:/Program Files/Rowley Associates Limited/CrossWorks for ARM 2.3/lib/libdebugio_v7em_t_le_eabi.a(libdebugio.o)
 .ARM.attributes
                0x0000129b       0x1e C:/Program Files/Rowley Associates Limited/CrossWorks for ARM 2.3/lib/libdebugio_v7em_t_le_eabi.a(libdebugio_asm.o)
 .ARM.attributes
                0x000012b9       0x2e C:/Program Files/Rowley Associates Limited/CrossWorks for ARM 2.3/lib/libc_targetio_impl_v7em_t_le_eabi.a(libc_targetio_impl.o)
 .ARM.attributes
                0x000012e7       0x2e C:/Program Files/Rowley Associates Limited/CrossWorks for ARM 2.3/lib/libc_user_libc_v7em_t_le_eabi.a(user_libc.o)
